---
triple:          'arm64-apple-darwin'
binary-path:     main
relocations:
  - { offsetInCU: 0x498B, offset: 0x498B, size: 0x8, addend: 0x0, symName: __ZNSt3__124__put_character_sequenceB8ue170006IcNS_11char_traitsIcEEEERNS_13basic_ostreamIT_T0_EES7_PKS4_m, symObjAddr: 0x9A8, symBinAddr: 0x100003C9C, symSize: 0x1F4 }
  - { offsetInCU: 0x5884, offset: 0x5884, size: 0x8, addend: 0x0, symName: __ZNSt3__16copy_nB8ue170006IPKcmPcEENS_9enable_ifIXsr37__has_random_access_iterator_categoryIT_EE5valueET1_E4typeES5_T0_S6_, symObjAddr: 0x2BE4, symBinAddr: 0x100005ED8, symSize: 0x44 }
  - { offsetInCU: 0x71D0, offset: 0x71D0, size: 0x8, addend: 0x0, symName: __ZNSt3__1lsB8ue170006INS_11char_traitsIcEEEERNS_13basic_ostreamIcT_EES6_PKc, symObjAddr: 0x358, symBinAddr: 0x10000364C, symSize: 0x48 }
  - { offsetInCU: 0x7216, offset: 0x7216, size: 0x8, addend: 0x0, symName: __ZNSt3__14endlB8ue170006IcNS_11char_traitsIcEEEERNS_13basic_ostreamIT_T0_EES7_, symObjAddr: 0x3CC, symBinAddr: 0x1000036C0, symSize: 0x58 }
  - { offsetInCU: 0x7256, offset: 0x7256, size: 0x8, addend: 0x0, symName: __ZNSt3__1rsB8ue170006IcNS_11char_traitsIcEENS_9allocatorIcEEEERNS_13basic_istreamIT_T0_EES9_RNS_12basic_stringIS6_S7_T1_EE, symObjAddr: 0x47C, symBinAddr: 0x100003770, symSize: 0x314 }
  - { offsetInCU: 0x7323, offset: 0x7323, size: 0x8, addend: 0x0, symName: __ZNSt3__116__pad_and_outputB8ue170006IcNS_11char_traitsIcEEEENS_19ostreambuf_iteratorIT_T0_EES6_PKS4_S8_S8_RNS_8ios_baseES4_, symObjAddr: 0xC00, symBinAddr: 0x100003EF4, symSize: 0x248 }
  - { offsetInCU: 0x73F2, offset: 0x73F2, size: 0x8, addend: 0x0, symName: __ZNSt3__112__to_addressB8ue170006IKcEEPT_S3_, symObjAddr: 0x1170, symBinAddr: 0x100004464, symSize: 0x14 }
  - { offsetInCU: 0x7427, offset: 0x7427, size: 0x8, addend: 0x0, symName: __ZNSt3__130__libcpp_is_constant_evaluatedB8ue170006Ev, symObjAddr: 0x129C, symBinAddr: 0x100004590, symSize: 0xC }
  - { offsetInCU: 0x7477, offset: 0x7477, size: 0x8, addend: 0x0, symName: __ZNSt3__19use_facetB8ue170006INS_5ctypeIcEEEERKT_RKNS_6localeE, symObjAddr: 0x1454, symBinAddr: 0x100004748, symSize: 0x2C }
  - { offsetInCU: 0x7855, offset: 0x7855, size: 0x8, addend: 0x0, symName: __ZNSt3__118__constexpr_strlenB8ue170006EPKc, symObjAddr: 0x14EC, symBinAddr: 0x1000047E0, symSize: 0x24 }
  - { offsetInCU: 0x7881, offset: 0x7881, size: 0x8, addend: 0x0, symName: __ZNSt3__117__libcpp_allocateB8ue170006Emm, symObjAddr: 0x1974, symBinAddr: 0x100004C68, symSize: 0x28 }
  - { offsetInCU: 0x78BE, offset: 0x78BE, size: 0x8, addend: 0x0, symName: __ZNSt3__121__libcpp_operator_newB8ue170006IJmEEEPvDpT_, symObjAddr: 0x19B0, symBinAddr: 0x100004CA4, symSize: 0x24 }
  - { offsetInCU: 0x82B8, offset: 0x82B8, size: 0x8, addend: 0x0, symName: __ZNSt3__1plB8ue170006IcNS_11char_traitsIcEENS_9allocatorIcEEEENS_12basic_stringIT_T0_T1_EERKS9_PKS6_, symObjAddr: 0x1F34, symBinAddr: 0x100005228, symSize: 0x11C }
  - { offsetInCU: 0x8359, offset: 0x8359, size: 0x8, addend: 0x0, symName: __ZNSt3__112__to_addressB8ue170006IcEEPT_S2_, symObjAddr: 0x2774, symBinAddr: 0x100005A68, symSize: 0x14 }
  - { offsetInCU: 0x838E, offset: 0x838E, size: 0x8, addend: 0x0, symName: __ZNSt3__120__throw_length_errorB8ue170006EPKc, symObjAddr: 0x2B00, symBinAddr: 0x100005DF4, symSize: 0x64 }
  - { offsetInCU: 0x83B8, offset: 0x83B8, size: 0x8, addend: 0x0, symName: __ZNSt3__14copyB8ue170006IPKcPcEET0_T_S5_S4_, symObjAddr: 0x2C28, symBinAddr: 0x100005F1C, symSize: 0x40 }
  - { offsetInCU: 0x8412, offset: 0x8412, size: 0x8, addend: 0x0, symName: __ZNSt3__16__copyB8ue170006INS_17_ClassicAlgPolicyEPKcS3_PcEENS_4pairIT0_T2_EES6_T1_S7_, symObjAddr: 0x2C68, symBinAddr: 0x100005F5C, symSize: 0x44 }
  - { offsetInCU: 0x847E, offset: 0x847E, size: 0x8, addend: 0x0, symName: __ZNSt3__123__dispatch_copy_or_moveB8ue170006INS_17_ClassicAlgPolicyENS_11__copy_loopIS1_EENS_14__copy_trivialEPKcS6_PcEENS_4pairIT2_T4_EES9_T3_SA_, symObjAddr: 0x2CAC, symBinAddr: 0x100005FA0, symSize: 0x44 }
  - { offsetInCU: 0x84FC, offset: 0x84FC, size: 0x8, addend: 0x0, symName: __ZNSt3__121__unwrap_and_dispatchB8ue170006INS_10__overloadINS_11__copy_loopINS_17_ClassicAlgPolicyEEENS_14__copy_trivialEEEPKcS8_PcLi0EEENS_4pairIT0_T2_EESB_T1_SC_, symObjAddr: 0x2CF0, symBinAddr: 0x100005FE4, symSize: 0xB4 }
  - { offsetInCU: 0x858A, offset: 0x858A, size: 0x8, addend: 0x0, symName: __ZNSt3__114__unwrap_rangeB8ue170006IPKcS2_EENS_4pairIT0_S4_EET_S6_, symObjAddr: 0x2DA4, symBinAddr: 0x100006098, symSize: 0x60 }
  - { offsetInCU: 0x86C9, offset: 0x86C9, size: 0x8, addend: 0x0, symName: __ZNSt3__113__unwrap_iterB8ue170006IPcNS_18__unwrap_iter_implIS1_Lb1EEELi0EEEDTclsrT0_8__unwrapclsr3stdE7declvalIT_EEEES5_, symObjAddr: 0x2E4C, symBinAddr: 0x100006140, symSize: 0x24 }
  - { offsetInCU: 0x870D, offset: 0x870D, size: 0x8, addend: 0x0, symName: __ZNSt3__19make_pairB8ue170006IPKcPcEENS_4pairINS_18__unwrap_ref_decayIT_E4typeENS5_IT0_E4typeEEEOS6_OS9_, symObjAddr: 0x2E70, symBinAddr: 0x100006164, symSize: 0x38 }
  - { offsetInCU: 0x875C, offset: 0x875C, size: 0x8, addend: 0x0, symName: __ZNSt3__114__rewrap_rangeB8ue170006IPKcS2_EET_S3_T0_, symObjAddr: 0x2EA8, symBinAddr: 0x10000619C, symSize: 0x2C }
  - { offsetInCU: 0x87A8, offset: 0x87A8, size: 0x8, addend: 0x0, symName: __ZNSt3__113__rewrap_iterB8ue170006IPcS1_NS_18__unwrap_iter_implIS1_Lb1EEEEET_S4_T0_, symObjAddr: 0x2ED4, symBinAddr: 0x1000061C8, symSize: 0x50 }
  - { offsetInCU: 0x87FD, offset: 0x87FD, size: 0x8, addend: 0x0, symName: __ZNSt3__19make_pairB8ue170006IPKcS2_EENS_4pairINS_18__unwrap_ref_decayIT_E4typeENS4_IT0_E4typeEEEOS5_OS8_, symObjAddr: 0x2F24, symBinAddr: 0x100006218, symSize: 0x38 }
  - { offsetInCU: 0x884C, offset: 0x884C, size: 0x8, addend: 0x0, symName: __ZNSt3__113__unwrap_iterB8ue170006IPKcNS_18__unwrap_iter_implIS2_Lb1EEELi0EEEDTclsrT0_8__unwrapclsr3stdE7declvalIT_EEEES6_, symObjAddr: 0x2F5C, symBinAddr: 0x100006250, symSize: 0x24 }
  - { offsetInCU: 0x8990, offset: 0x8990, size: 0x8, addend: 0x0, symName: __ZNSt3__119__copy_trivial_implB8ue170006IKccEENS_4pairIPT_PT0_EES4_S4_S6_, symObjAddr: 0x3014, symBinAddr: 0x100006308, symSize: 0x78 }
  - { offsetInCU: 0x89F8, offset: 0x89F8, size: 0x8, addend: 0x0, symName: __ZNSt3__119__constexpr_memmoveB8ue170006IcKcLi0EEEPT_S3_PT0_NS_15__element_countE, symObjAddr: 0x308C, symBinAddr: 0x100006380, symSize: 0xA0 }
  - { offsetInCU: 0x8A66, offset: 0x8A66, size: 0x8, addend: 0x0, symName: __ZNSt3__19make_pairB8ue170006IRPKcPcEENS_4pairINS_18__unwrap_ref_decayIT_E4typeENS6_IT0_E4typeEEEOS7_OSA_, symObjAddr: 0x312C, symBinAddr: 0x100006420, symSize: 0x38 }
  - { offsetInCU: 0x8B08, offset: 0x8B08, size: 0x8, addend: 0x0, symName: __ZNSt3__113__rewrap_iterB8ue170006IPKcS2_NS_18__unwrap_iter_implIS2_Lb1EEEEET_S5_T0_, symObjAddr: 0x31F8, symBinAddr: 0x1000064EC, symSize: 0x50 }
  - { offsetInCU: 0x8B5D, offset: 0x8B5D, size: 0x8, addend: 0x0, symName: __ZNSt3__16fill_nB8ue170006IPcmcEET_S2_T0_RKT1_, symObjAddr: 0x32D8, symBinAddr: 0x1000065CC, symSize: 0x44 }
  - { offsetInCU: 0x8BC0, offset: 0x8BC0, size: 0x8, addend: 0x0, symName: __ZNSt3__18__fill_nB8ue170006IPcmcEET_S2_T0_RKT1_, symObjAddr: 0x331C, symBinAddr: 0x100006610, symSize: 0x64 }
  - { offsetInCU: 0x8C23, offset: 0x8C23, size: 0x8, addend: 0x0, symName: __ZNSt3__121__convert_to_integralB8ue170006Em, symObjAddr: 0x3380, symBinAddr: 0x100006674, symSize: 0x14 }
  - { offsetInCU: 0x8DC4, offset: 0x8DC4, size: 0x8, addend: 0x0, symName: __ZNSt3__112__to_addressB8ue170006IP6BTNodeIiEEEPT_S5_, symObjAddr: 0x4118, symBinAddr: 0x10000740C, symSize: 0x14 }
  - { offsetInCU: 0x8DF9, offset: 0x8DF9, size: 0x8, addend: 0x0, symName: __ZNSt3__112__to_addressB8ue170006IPP6BTNodeIiEEEPT_S6_, symObjAddr: 0x43E4, symBinAddr: 0x1000076D8, symSize: 0x14 }
  - { offsetInCU: 0x8E2E, offset: 0x8E2E, size: 0x8, addend: 0x0, symName: __ZNSt3__119__libcpp_deallocateB8ue170006EPvmm, symObjAddr: 0x447C, symBinAddr: 0x100007770, symSize: 0x30 }
  - { offsetInCU: 0x8E76, offset: 0x8E76, size: 0x8, addend: 0x0, symName: __ZNSt3__127__do_deallocate_handle_sizeB8ue170006IJEEEvPvmDpT_, symObjAddr: 0x44AC, symBinAddr: 0x1000077A0, symSize: 0x28 }
  - { offsetInCU: 0x8EB4, offset: 0x8EB4, size: 0x8, addend: 0x0, symName: __ZNSt3__124__libcpp_operator_deleteB8ue170006IJPvEEEvDpT_, symObjAddr: 0x44D4, symBinAddr: 0x1000077C8, symSize: 0x24 }
  - { offsetInCU: 0x8EE9, offset: 0x8EE9, size: 0x8, addend: 0x0, symName: __ZNSt3__13maxB8ue170006ImEERKT_S3_S3_, symObjAddr: 0x5544, symBinAddr: 0x100008838, symSize: 0x2C }
  - { offsetInCU: 0x93B5, offset: 0x93B5, size: 0x8, addend: 0x0, symName: __ZNSt3__14swapB8ue170006IPPP6BTNodeIiEEEvRT_S7_, symObjAddr: 0x5BA4, symBinAddr: 0x100008E98, symSize: 0x3C }
  - { offsetInCU: 0x9406, offset: 0x9406, size: 0x8, addend: 0x0, symName: __ZNSt3__14moveB8ue170006IPPP6BTNodeIiES5_EET0_T_S7_S6_, symObjAddr: 0x5CD4, symBinAddr: 0x100008FC8, symSize: 0x40 }
  - { offsetInCU: 0x947C, offset: 0x947C, size: 0x8, addend: 0x0, symName: __ZNSt3__16__moveB8ue170006INS_17_ClassicAlgPolicyEPPP6BTNodeIiES6_S6_EENS_4pairIT0_T2_EES8_T1_S9_, symObjAddr: 0x5DDC, symBinAddr: 0x1000090D0, symSize: 0x44 }
  - { offsetInCU: 0x94E8, offset: 0x94E8, size: 0x8, addend: 0x0, symName: __ZNSt3__123__dispatch_copy_or_moveB8ue170006INS_17_ClassicAlgPolicyENS_11__move_loopIS1_EENS_14__move_trivialEPPP6BTNodeIiES9_S9_EENS_4pairIT2_T4_EESB_T3_SC_, symObjAddr: 0x5E20, symBinAddr: 0x100009114, symSize: 0x44 }
  - { offsetInCU: 0x9566, offset: 0x9566, size: 0x8, addend: 0x0, symName: __ZNSt3__121__unwrap_and_dispatchB8ue170006INS_10__overloadINS_11__move_loopINS_17_ClassicAlgPolicyEEENS_14__move_trivialEEEPPP6BTNodeIiESB_SB_Li0EEENS_4pairIT0_T2_EESD_T1_SE_, symObjAddr: 0x5E64, symBinAddr: 0x100009158, symSize: 0xB4 }
  - { offsetInCU: 0x95F4, offset: 0x95F4, size: 0x8, addend: 0x0, symName: __ZNSt3__114__unwrap_rangeB8ue170006IPPP6BTNodeIiES5_EENS_4pairIT0_S7_EET_S9_, symObjAddr: 0x5F18, symBinAddr: 0x10000920C, symSize: 0x60 }
  - { offsetInCU: 0x9733, offset: 0x9733, size: 0x8, addend: 0x0, symName: __ZNSt3__113__unwrap_iterB8ue170006IPPP6BTNodeIiENS_18__unwrap_iter_implIS5_Lb1EEELi0EEEDTclsrT0_8__unwrapclsr3stdE7declvalIT_EEEES9_, symObjAddr: 0x5FC0, symBinAddr: 0x1000092B4, symSize: 0x24 }
  - { offsetInCU: 0x9777, offset: 0x9777, size: 0x8, addend: 0x0, symName: __ZNSt3__19make_pairB8ue170006IPPP6BTNodeIiES5_EENS_4pairINS_18__unwrap_ref_decayIT_E4typeENS7_IT0_E4typeEEEOS8_OSB_, symObjAddr: 0x5FE4, symBinAddr: 0x1000092D8, symSize: 0x38 }
  - { offsetInCU: 0x97C6, offset: 0x97C6, size: 0x8, addend: 0x0, symName: __ZNSt3__114__rewrap_rangeB8ue170006IPPP6BTNodeIiES5_EET_S6_T0_, symObjAddr: 0x601C, symBinAddr: 0x100009310, symSize: 0x2C }
  - { offsetInCU: 0x9812, offset: 0x9812, size: 0x8, addend: 0x0, symName: __ZNSt3__113__rewrap_iterB8ue170006IPPP6BTNodeIiES5_NS_18__unwrap_iter_implIS5_Lb1EEEEET_S8_T0_, symObjAddr: 0x6048, symBinAddr: 0x10000933C, symSize: 0x50 }
  - { offsetInCU: 0x9867, offset: 0x9867, size: 0x8, addend: 0x0, symName: __ZNSt3__119__copy_trivial_implB8ue170006IPP6BTNodeIiES4_EENS_4pairIPT_PT0_EES7_S7_S9_, symObjAddr: 0x6098, symBinAddr: 0x10000938C, symSize: 0x80 }
  - { offsetInCU: 0x98CF, offset: 0x98CF, size: 0x8, addend: 0x0, symName: __ZNSt3__119__constexpr_memmoveB8ue170006IPP6BTNodeIiES4_Li0EEEPT_S6_PT0_NS_15__element_countE, symObjAddr: 0x6118, symBinAddr: 0x10000940C, symSize: 0xA0 }
  - { offsetInCU: 0x993D, offset: 0x993D, size: 0x8, addend: 0x0, symName: __ZNSt3__19make_pairB8ue170006IRPPP6BTNodeIiES5_EENS_4pairINS_18__unwrap_ref_decayIT_E4typeENS8_IT0_E4typeEEEOS9_OSC_, symObjAddr: 0x61B8, symBinAddr: 0x1000094AC, symSize: 0x38 }
  - { offsetInCU: 0x99DF, offset: 0x99DF, size: 0x8, addend: 0x0, symName: __ZNSt3__18distanceB8ue170006INS_13move_iteratorIPPP6BTNodeIiEEEEENS_15iterator_traitsIT_E15difference_typeES9_S9_, symObjAddr: 0x63B8, symBinAddr: 0x1000096AC, symSize: 0x3C }
  - { offsetInCU: 0x9A22, offset: 0x9A22, size: 0x8, addend: 0x0, symName: __ZNSt3__110__distanceB8ue170006INS_13move_iteratorIPPP6BTNodeIiEEEEENS_15iterator_traitsIT_E15difference_typeES9_S9_NS_26random_access_iterator_tagE, symObjAddr: 0x65BC, symBinAddr: 0x1000098B0, symSize: 0x30 }
  - { offsetInCU: 0x9A6F, offset: 0x9A6F, size: 0x8, addend: 0x0, symName: __ZNSt3__1miB8ue170006IPPP6BTNodeIiES5_EENS_13move_iteratorIT_E15difference_typeERKS8_RKNS6_IT0_EE, symObjAddr: 0x65EC, symBinAddr: 0x1000098E0, symSize: 0x48 }
  - { offsetInCU: 0x9ABE, offset: 0x9ABE, size: 0x8, addend: 0x0, symName: __ZNSt3__113move_backwardB8ue170006IPPP6BTNodeIiES5_EET0_T_S7_S6_, symObjAddr: 0x6750, symBinAddr: 0x100009A44, symSize: 0x40 }
  - { offsetInCU: 0x9B18, offset: 0x9B18, size: 0x8, addend: 0x0, symName: __ZNSt3__115__move_backwardB8ue170006INS_17_ClassicAlgPolicyEPPP6BTNodeIiES6_S6_EENS_4pairIT0_T2_EES8_T1_S9_, symObjAddr: 0x6790, symBinAddr: 0x100009A84, symSize: 0x44 }
  - { offsetInCU: 0x9B84, offset: 0x9B84, size: 0x8, addend: 0x0, symName: __ZNSt3__123__dispatch_copy_or_moveB8ue170006INS_17_ClassicAlgPolicyENS_20__move_backward_loopIS1_EENS_23__move_backward_trivialEPPP6BTNodeIiES9_S9_EENS_4pairIT2_T4_EESB_T3_SC_, symObjAddr: 0x67D4, symBinAddr: 0x100009AC8, symSize: 0x44 }
  - { offsetInCU: 0x9C02, offset: 0x9C02, size: 0x8, addend: 0x0, symName: __ZNSt3__121__unwrap_and_dispatchB8ue170006INS_10__overloadINS_20__move_backward_loopINS_17_ClassicAlgPolicyEEENS_23__move_backward_trivialEEEPPP6BTNodeIiESB_SB_Li0EEENS_4pairIT0_T2_EESD_T1_SE_, symObjAddr: 0x6818, symBinAddr: 0x100009B0C, symSize: 0xB4 }
  - { offsetInCU: 0x9CD6, offset: 0x9CD6, size: 0x8, addend: 0x0, symName: __ZNSt3__128__copy_backward_trivial_implB8ue170006IPP6BTNodeIiES4_EENS_4pairIPT_PT0_EES7_S7_S9_, symObjAddr: 0x6914, symBinAddr: 0x100009C08, symSize: 0x90 }
  - { offsetInCU: 0x9D3E, offset: 0x9D3E, size: 0x8, addend: 0x0, symName: __ZNSt3__19make_pairB8ue170006IRPPP6BTNodeIiES6_EENS_4pairINS_18__unwrap_ref_decayIT_E4typeENS8_IT0_E4typeEEEOS9_OSC_, symObjAddr: 0x69A4, symBinAddr: 0x100009C98, symSize: 0x38 }
  - { offsetInCU: 0x9D8D, offset: 0x9D8D, size: 0x8, addend: 0x0, symName: __ZNSt3__13maxB8ue170006ImNS_6__lessIvvEEEERKT_S5_S5_T0_, symObjAddr: 0x6A20, symBinAddr: 0x100009D14, symSize: 0x54 }
  - { offsetInCU: 0x9E2C, offset: 0x9E2C, size: 0x8, addend: 0x0, symName: __ZNSt3__119__allocate_at_leastB8ue170006INS_9allocatorIPP6BTNodeIiEEEEENS_19__allocation_resultINS_16allocator_traitsIT_E7pointerEEERS9_m, symObjAddr: 0x6BB8, symBinAddr: 0x100009EAC, symSize: 0x40 }
  - { offsetInCU: 0x9E6F, offset: 0x9E6F, size: 0x8, addend: 0x0, symName: __ZNSt3__1neB8ue170006ERKNS_16__deque_iteratorIP6BTNodeIiEPS3_RS3_PS4_lLl512EEES9_, symObjAddr: 0x7BA8, symBinAddr: 0x10000AE9C, symSize: 0x34 }
  - { offsetInCU: 0x9EAC, offset: 0x9EAC, size: 0x8, addend: 0x0, symName: __ZNSt3__1eqB8ue170006ERKNS_16__deque_iteratorIP6BTNodeIiEPS3_RS3_PS4_lLl512EEES9_, symObjAddr: 0x7C4C, symBinAddr: 0x10000AF40, symSize: 0x30 }
  - { offsetInCU: 0x9EE9, offset: 0x9EE9, size: 0x8, addend: 0x0, symName: __ZNSt3__1lsB8ue170006INS_11char_traitsIcEEEERNS_13basic_ostreamIcT_EES6_c, symObjAddr: 0x7D0C, symBinAddr: 0x10000B000, symSize: 0x34 }
  - { offsetInCU: 0xA219, offset: 0xA219, size: 0x8, addend: 0x0, symName: __ZSt28__throw_bad_array_new_lengthB8ue170006v, symObjAddr: 0x1940, symBinAddr: 0x100004C34, symSize: 0x34 }
  - { offsetInCU: 0xCC6A, offset: 0xCC6A, size: 0x8, addend: 0x0, symName: _main, symObjAddr: 0x0, symBinAddr: 0x1000032F4, symSize: 0x358 }
  - { offsetInCU: 0xCCBF, offset: 0xCCBF, size: 0x8, addend: 0x0, symName: __ZNSt3__113basic_ostreamIcNS_11char_traitsIcEEElsB8ue170006EPFRS3_S4_E, symObjAddr: 0x3A0, symBinAddr: 0x100003694, symSize: 0x2C }
  - { offsetInCU: 0xCF87, offset: 0xCF87, size: 0x8, addend: 0x0, symName: __ZN2BTIiEC1Ev, symObjAddr: 0x424, symBinAddr: 0x100003718, symSize: 0x2C }
  - { offsetInCU: 0xCFB1, offset: 0xCFB1, size: 0x8, addend: 0x0, symName: __ZNSt3__112basic_stringIcNS_11char_traitsIcEENS_9allocatorIcEEEC1B8ue170006Ev, symObjAddr: 0x450, symBinAddr: 0x100003744, symSize: 0x2C }
  - { offsetInCU: 0xCFDB, offset: 0xCFDB, size: 0x8, addend: 0x0, symName: __ZN2BTIiE9createExpENSt3__112basic_stringIcNS1_11char_traitsIcEENS1_9allocatorIcEEEE, symObjAddr: 0x790, symBinAddr: 0x100003A84, symSize: 0x104 }
  - { offsetInCU: 0xD02C, offset: 0xD02C, size: 0x8, addend: 0x0, symName: __ZN2BTIiE6prefixEv, symObjAddr: 0x8A0, symBinAddr: 0x100003B94, symSize: 0x3C }
  - { offsetInCU: 0xD052, offset: 0xD052, size: 0x8, addend: 0x0, symName: __ZN2BTIiE5infixEv, symObjAddr: 0x8DC, symBinAddr: 0x100003BD0, symSize: 0x3C }
  - { offsetInCU: 0xD078, offset: 0xD078, size: 0x8, addend: 0x0, symName: __ZN2BTIiE7evalExpEv, symObjAddr: 0x918, symBinAddr: 0x100003C0C, symSize: 0x64 }
  - { offsetInCU: 0xD09E, offset: 0xD09E, size: 0x8, addend: 0x0, symName: __ZN2BTIiED1Ev, symObjAddr: 0x97C, symBinAddr: 0x100003C70, symSize: 0x2C }
  - { offsetInCU: 0xD0C8, offset: 0xD0C8, size: 0x8, addend: 0x0, symName: __ZNSt3__111char_traitsIcE6lengthB8ue170006EPKc, symObjAddr: 0xB9C, symBinAddr: 0x100003E90, symSize: 0x48 }
  - { offsetInCU: 0xD109, offset: 0xD109, size: 0x8, addend: 0x0, symName: __ZNKSt3__113basic_ostreamIcNS_11char_traitsIcEEE6sentrycvbB8ue170006Ev, symObjAddr: 0xBE4, symBinAddr: 0x100003ED8, symSize: 0x1C }
  - { offsetInCU: 0xD12F, offset: 0xD12F, size: 0x8, addend: 0x0, symName: __ZNSt3__119ostreambuf_iteratorIcNS_11char_traitsIcEEEC1B8ue170006ERNS_13basic_ostreamIcS2_EE, symObjAddr: 0xE48, symBinAddr: 0x10000413C, symSize: 0x34 }
  - { offsetInCU: 0xD167, offset: 0xD167, size: 0x8, addend: 0x0, symName: __ZNKSt3__18ios_base5flagsB8ue170006Ev, symObjAddr: 0xE7C, symBinAddr: 0x100004170, symSize: 0x18 }
  - { offsetInCU: 0xD18F, offset: 0xD18F, size: 0x8, addend: 0x0, symName: __ZNKSt3__19basic_iosIcNS_11char_traitsIcEEE4fillB8ue170006Ev, symObjAddr: 0xE94, symBinAddr: 0x100004188, symSize: 0x64 }
  - { offsetInCU: 0xD1B7, offset: 0xD1B7, size: 0x8, addend: 0x0, symName: __ZNKSt3__119ostreambuf_iteratorIcNS_11char_traitsIcEEE6failedB8ue170006Ev, symObjAddr: 0xEF8, symBinAddr: 0x1000041EC, symSize: 0x24 }
  - { offsetInCU: 0xD1DD, offset: 0xD1DD, size: 0x8, addend: 0x0, symName: __ZNSt3__19basic_iosIcNS_11char_traitsIcEEE8setstateB8ue170006Ej, symObjAddr: 0xF1C, symBinAddr: 0x100004210, symSize: 0x2C }
  - { offsetInCU: 0xD212, offset: 0xD212, size: 0x8, addend: 0x0, symName: __ZNKSt3__18ios_base5widthB8ue170006Ev, symObjAddr: 0xF48, symBinAddr: 0x10000423C, symSize: 0x18 }
  - { offsetInCU: 0xD23A, offset: 0xD23A, size: 0x8, addend: 0x0, symName: __ZNSt3__115basic_streambufIcNS_11char_traitsIcEEE5sputnB8ue170006EPKcl, symObjAddr: 0xF60, symBinAddr: 0x100004254, symSize: 0x3C }
  - { offsetInCU: 0xD27C, offset: 0xD27C, size: 0x8, addend: 0x0, symName: __ZNSt3__112basic_stringIcNS_11char_traitsIcEENS_9allocatorIcEEEC1B8ue170006Emc, symObjAddr: 0xF9C, symBinAddr: 0x100004290, symSize: 0x3C }
  - { offsetInCU: 0xD2C4, offset: 0xD2C4, size: 0x8, addend: 0x0, symName: __ZNKSt3__112basic_stringIcNS_11char_traitsIcEENS_9allocatorIcEEE4dataB8ue170006Ev, symObjAddr: 0xFD8, symBinAddr: 0x1000042CC, symSize: 0x28 }
  - { offsetInCU: 0xD2EA, offset: 0xD2EA, size: 0x8, addend: 0x0, symName: __ZNSt3__18ios_base5widthB8ue170006El, symObjAddr: 0x1000, symBinAddr: 0x1000042F4, symSize: 0x2C }
  - { offsetInCU: 0xD330, offset: 0xD330, size: 0x8, addend: 0x0, symName: __ZNSt3__112basic_stringIcNS_11char_traitsIcEENS_9allocatorIcEEEC2B8ue170006Emc, symObjAddr: 0x102C, symBinAddr: 0x100004320, symSize: 0x4C }
  - { offsetInCU: 0xD37D, offset: 0xD37D, size: 0x8, addend: 0x0, symName: __ZNSt3__117__compressed_pairINS_12basic_stringIcNS_11char_traitsIcEENS_9allocatorIcEEE5__repES5_EC1B8ue170006INS_18__default_init_tagESA_EEOT_OT0_, symObjAddr: 0x1078, symBinAddr: 0x10000436C, symSize: 0x3C }
  - { offsetInCU: 0xD3D5, offset: 0xD3D5, size: 0x8, addend: 0x0, symName: __ZNSt3__117__compressed_pairINS_12basic_stringIcNS_11char_traitsIcEENS_9allocatorIcEEE5__repES5_EC2B8ue170006INS_18__default_init_tagESA_EEOT_OT0_, symObjAddr: 0x10B4, symBinAddr: 0x1000043A8, symSize: 0x3C }
  - { offsetInCU: 0xD42D, offset: 0xD42D, size: 0x8, addend: 0x0, symName: __ZNSt3__122__compressed_pair_elemINS_12basic_stringIcNS_11char_traitsIcEENS_9allocatorIcEEE5__repELi0ELb0EEC2B8ue170006ENS_18__default_init_tagE, symObjAddr: 0x10F0, symBinAddr: 0x1000043E4, symSize: 0x14 }
  - { offsetInCU: 0xD461, offset: 0xD461, size: 0x8, addend: 0x0, symName: __ZNSt3__122__compressed_pair_elemINS_9allocatorIcEELi1ELb1EEC2B8ue170006ENS_18__default_init_tagE, symObjAddr: 0x1104, symBinAddr: 0x1000043F8, symSize: 0x2C }
  - { offsetInCU: 0xD495, offset: 0xD495, size: 0x8, addend: 0x0, symName: __ZNSt3__19allocatorIcEC2B8ue170006Ev, symObjAddr: 0x1130, symBinAddr: 0x100004424, symSize: 0x2C }
  - { offsetInCU: 0xD4BF, offset: 0xD4BF, size: 0x8, addend: 0x0, symName: __ZNSt3__116__non_trivial_ifILb1ENS_9allocatorIcEEEC2B8ue170006Ev, symObjAddr: 0x115C, symBinAddr: 0x100004450, symSize: 0x14 }
  - { offsetInCU: 0xD4E9, offset: 0xD4E9, size: 0x8, addend: 0x0, symName: __ZNKSt3__112basic_stringIcNS_11char_traitsIcEENS_9allocatorIcEEE13__get_pointerB8ue170006Ev, symObjAddr: 0x1184, symBinAddr: 0x100004478, symSize: 0x54 }
  - { offsetInCU: 0xD50F, offset: 0xD50F, size: 0x8, addend: 0x0, symName: __ZNKSt3__112basic_stringIcNS_11char_traitsIcEENS_9allocatorIcEEE9__is_longB8ue170006Ev, symObjAddr: 0x11D8, symBinAddr: 0x1000044CC, symSize: 0x74 }
  - { offsetInCU: 0xD535, offset: 0xD535, size: 0x8, addend: 0x0, symName: __ZNKSt3__112basic_stringIcNS_11char_traitsIcEENS_9allocatorIcEEE18__get_long_pointerB8ue170006Ev, symObjAddr: 0x124C, symBinAddr: 0x100004540, symSize: 0x28 }
  - { offsetInCU: 0xD55B, offset: 0xD55B, size: 0x8, addend: 0x0, symName: __ZNKSt3__112basic_stringIcNS_11char_traitsIcEENS_9allocatorIcEEE19__get_short_pointerB8ue170006Ev, symObjAddr: 0x1274, symBinAddr: 0x100004568, symSize: 0x28 }
  - { offsetInCU: 0xD581, offset: 0xD581, size: 0x8, addend: 0x0, symName: __ZNKSt3__117__compressed_pairINS_12basic_stringIcNS_11char_traitsIcEENS_9allocatorIcEEE5__repES5_E5firstB8ue170006Ev, symObjAddr: 0x12A8, symBinAddr: 0x10000459C, symSize: 0x24 }
  - { offsetInCU: 0xD5A7, offset: 0xD5A7, size: 0x8, addend: 0x0, symName: __ZNKSt3__122__compressed_pair_elemINS_12basic_stringIcNS_11char_traitsIcEENS_9allocatorIcEEE5__repELi0ELb0EE5__getB8ue170006Ev, symObjAddr: 0x12CC, symBinAddr: 0x1000045C0, symSize: 0x14 }
  - { offsetInCU: 0xD5CD, offset: 0xD5CD, size: 0x8, addend: 0x0, symName: __ZNSt3__114pointer_traitsIPKcE10pointer_toB8ue170006ERS1_, symObjAddr: 0x12E0, symBinAddr: 0x1000045D4, symSize: 0x14 }
  - { offsetInCU: 0xD5F0, offset: 0xD5F0, size: 0x8, addend: 0x0, symName: __ZNSt3__119ostreambuf_iteratorIcNS_11char_traitsIcEEEC2B8ue170006ERNS_13basic_ostreamIcS2_EE, symObjAddr: 0x12F4, symBinAddr: 0x1000045E8, symSize: 0x68 }
  - { offsetInCU: 0xD628, offset: 0xD628, size: 0x8, addend: 0x0, symName: __ZNKSt3__19basic_iosIcNS_11char_traitsIcEEE5rdbufB8ue170006Ev, symObjAddr: 0x135C, symBinAddr: 0x100004650, symSize: 0x24 }
  - { offsetInCU: 0xD650, offset: 0xD650, size: 0x8, addend: 0x0, symName: __ZNKSt3__18ios_base5rdbufB8ue170006Ev, symObjAddr: 0x1380, symBinAddr: 0x100004674, symSize: 0x18 }
  - { offsetInCU: 0xD676, offset: 0xD676, size: 0x8, addend: 0x0, symName: __ZNSt3__111char_traitsIcE11eq_int_typeB8ue170006Eii, symObjAddr: 0x1398, symBinAddr: 0x10000468C, symSize: 0x28 }
  - { offsetInCU: 0xD6A9, offset: 0xD6A9, size: 0x8, addend: 0x0, symName: __ZNSt3__111char_traitsIcE3eofB8ue170006Ev, symObjAddr: 0x13C0, symBinAddr: 0x1000046B4, symSize: 0x8 }
  - { offsetInCU: 0xD6BD, offset: 0xD6BD, size: 0x8, addend: 0x0, symName: __ZNKSt3__19basic_iosIcNS_11char_traitsIcEEE5widenB8ue170006Ec, symObjAddr: 0x13C8, symBinAddr: 0x1000046BC, symSize: 0x8C }
  - { offsetInCU: 0xD71C, offset: 0xD71C, size: 0x8, addend: 0x0, symName: __ZNKSt3__15ctypeIcE5widenB8ue170006Ec, symObjAddr: 0x1480, symBinAddr: 0x100004774, symSize: 0x38 }
  - { offsetInCU: 0xD751, offset: 0xD751, size: 0x8, addend: 0x0, symName: __ZNSt3__18ios_base8setstateB8ue170006Ej, symObjAddr: 0x14B8, symBinAddr: 0x1000047AC, symSize: 0x34 }
  - { offsetInCU: 0xD788, offset: 0xD788, size: 0x8, addend: 0x0, symName: __ZN2BTIiEC2Ev, symObjAddr: 0x1510, symBinAddr: 0x100004804, symSize: 0x18 }
  - { offsetInCU: 0xD7B2, offset: 0xD7B2, size: 0x8, addend: 0x0, symName: __ZN2BTIiED2Ev, symObjAddr: 0x1528, symBinAddr: 0x10000481C, symSize: 0x50 }
  - { offsetInCU: 0xD7DC, offset: 0xD7DC, size: 0x8, addend: 0x0, symName: __ZNSt3__112basic_stringIcNS_11char_traitsIcEENS_9allocatorIcEEEC2B8ue170006Ev, symObjAddr: 0x1578, symBinAddr: 0x10000486C, symSize: 0x3C }
  - { offsetInCU: 0xD806, offset: 0xD806, size: 0x8, addend: 0x0, symName: __ZNSt3__112basic_stringIcNS_11char_traitsIcEENS_9allocatorIcEEE14__default_initB8ue170006Ev, symObjAddr: 0x15B4, symBinAddr: 0x1000048A8, symSize: 0xB0 }
  - { offsetInCU: 0xD859, offset: 0xD859, size: 0x8, addend: 0x0, symName: __ZNSt3__117__compressed_pairINS_12basic_stringIcNS_11char_traitsIcEENS_9allocatorIcEEE5__repES5_E5firstB8ue170006Ev, symObjAddr: 0x1664, symBinAddr: 0x100004958, symSize: 0x24 }
  - { offsetInCU: 0xD87F, offset: 0xD87F, size: 0x8, addend: 0x0, symName: __ZNSt3__112basic_stringIcNS_11char_traitsIcEENS_9allocatorIcEEE11__recommendB8ue170006Em, symObjAddr: 0x1688, symBinAddr: 0x10000497C, symSize: 0x9C }
  - { offsetInCU: 0xD8B2, offset: 0xD8B2, size: 0x8, addend: 0x0, symName: __ZNSt3__116allocator_traitsINS_9allocatorIcEEE8allocateB8ue170006ERS2_m, symObjAddr: 0x1724, symBinAddr: 0x100004A18, symSize: 0x2C }
  - { offsetInCU: 0xD8E5, offset: 0xD8E5, size: 0x8, addend: 0x0, symName: __ZNSt3__112basic_stringIcNS_11char_traitsIcEENS_9allocatorIcEEE7__allocB8ue170006Ev, symObjAddr: 0x1750, symBinAddr: 0x100004A44, symSize: 0x24 }
  - { offsetInCU: 0xD90B, offset: 0xD90B, size: 0x8, addend: 0x0, symName: __ZNSt3__112basic_stringIcNS_11char_traitsIcEENS_9allocatorIcEEE16__begin_lifetimeB8ue170006EPcm, symObjAddr: 0x1774, symBinAddr: 0x100004A68, symSize: 0x14 }
  - { offsetInCU: 0xD93E, offset: 0xD93E, size: 0x8, addend: 0x0, symName: __ZNSt3__112basic_stringIcNS_11char_traitsIcEENS_9allocatorIcEEE18__set_long_pointerB8ue170006EPc, symObjAddr: 0x1788, symBinAddr: 0x100004A7C, symSize: 0x38 }
  - { offsetInCU: 0xD973, offset: 0xD973, size: 0x8, addend: 0x0, symName: __ZNSt3__112basic_stringIcNS_11char_traitsIcEENS_9allocatorIcEEE14__set_long_capB8ue170006Em, symObjAddr: 0x17C0, symBinAddr: 0x100004AB4, symSize: 0x70 }
  - { offsetInCU: 0xD9A8, offset: 0xD9A8, size: 0x8, addend: 0x0, symName: __ZNSt3__112basic_stringIcNS_11char_traitsIcEENS_9allocatorIcEEE15__set_long_sizeB8ue170006Em, symObjAddr: 0x1830, symBinAddr: 0x100004B24, symSize: 0x38 }
  - { offsetInCU: 0xD9DD, offset: 0xD9DD, size: 0x8, addend: 0x0, symName: __ZNSt3__122__compressed_pair_elemINS_12basic_stringIcNS_11char_traitsIcEENS_9allocatorIcEEE5__repELi0ELb0EE5__getB8ue170006Ev, symObjAddr: 0x1868, symBinAddr: 0x100004B5C, symSize: 0x14 }
  - { offsetInCU: 0xDA03, offset: 0xDA03, size: 0x8, addend: 0x0, symName: __ZNSt3__112basic_stringIcNS_11char_traitsIcEENS_9allocatorIcEEE10__align_itB8ue170006ILm16EEEmm, symObjAddr: 0x187C, symBinAddr: 0x100004B70, symSize: 0x1C }
  - { offsetInCU: 0xDA31, offset: 0xDA31, size: 0x8, addend: 0x0, symName: __ZNSt3__19allocatorIcE8allocateB8ue170006Em, symObjAddr: 0x1898, symBinAddr: 0x100004B8C, symSize: 0x84 }
  - { offsetInCU: 0xDA6F, offset: 0xDA6F, size: 0x8, addend: 0x0, symName: __ZNSt3__116allocator_traitsINS_9allocatorIcEEE8max_sizeB8ue170006IS2_vEEmRKS2_, symObjAddr: 0x191C, symBinAddr: 0x100004C10, symSize: 0x24 }
  - { offsetInCU: 0xDA9D, offset: 0xDA9D, size: 0x8, addend: 0x0, symName: __ZNKSt3__19allocatorIcE8max_sizeB8ue170006Ev, symObjAddr: 0x199C, symBinAddr: 0x100004C90, symSize: 0x14 }
  - { offsetInCU: 0xDAC3, offset: 0xDAC3, size: 0x8, addend: 0x0, symName: __ZNSt3__117__compressed_pairINS_12basic_stringIcNS_11char_traitsIcEENS_9allocatorIcEEE5__repES5_E6secondB8ue170006Ev, symObjAddr: 0x19D4, symBinAddr: 0x100004CC8, symSize: 0x24 }
  - { offsetInCU: 0xDAE9, offset: 0xDAE9, size: 0x8, addend: 0x0, symName: __ZNSt3__122__compressed_pair_elemINS_9allocatorIcEELi1ELb1EE5__getB8ue170006Ev, symObjAddr: 0x19F8, symBinAddr: 0x100004CEC, symSize: 0x14 }
  - { offsetInCU: 0xDB97, offset: 0xDB97, size: 0x8, addend: 0x0, symName: __ZNKSt3__113basic_istreamIcNS_11char_traitsIcEEE6sentrycvbB8ue170006Ev, symObjAddr: 0x1A0C, symBinAddr: 0x100004D00, symSize: 0x1C }
  - { offsetInCU: 0xDBBD, offset: 0xDBBD, size: 0x8, addend: 0x0, symName: __ZNSt3__112basic_stringIcNS_11char_traitsIcEENS_9allocatorIcEEE5clearB8ue170006Ev, symObjAddr: 0x1A28, symBinAddr: 0x100004D1C, symSize: 0x78 }
  - { offsetInCU: 0xDBE5, offset: 0xDBE5, size: 0x8, addend: 0x0, symName: __ZNKSt3__112basic_stringIcNS_11char_traitsIcEENS_9allocatorIcEEE8max_sizeB8ue170006Ev, symObjAddr: 0x1AA0, symBinAddr: 0x100004D94, symSize: 0xAC }
  - { offsetInCU: 0xDC38, offset: 0xDC38, size: 0x8, addend: 0x0, symName: __ZNSt3__114numeric_limitsIlE3maxB8ue170006Ev, symObjAddr: 0x1B4C, symBinAddr: 0x100004E40, symSize: 0x14 }
  - { offsetInCU: 0xDC4C, offset: 0xDC4C, size: 0x8, addend: 0x0, symName: __ZNSt3__115basic_streambufIcNS_11char_traitsIcEEE5sgetcB8ue170006Ev, symObjAddr: 0x1B60, symBinAddr: 0x100004E54, symSize: 0x70 }
  - { offsetInCU: 0xDC72, offset: 0xDC72, size: 0x8, addend: 0x0, symName: __ZNSt3__111char_traitsIcE12to_char_typeB8ue170006Ei, symObjAddr: 0x1BD0, symBinAddr: 0x100004EC4, symSize: 0x18 }
  - { offsetInCU: 0xDC95, offset: 0xDC95, size: 0x8, addend: 0x0, symName: __ZNKSt3__15ctypeIcE2isB8ue170006Ejc, symObjAddr: 0x1BE8, symBinAddr: 0x100004EDC, symSize: 0x7C }
  - { offsetInCU: 0xDCD9, offset: 0xDCD9, size: 0x8, addend: 0x0, symName: __ZNSt3__115basic_streambufIcNS_11char_traitsIcEEE6sbumpcB8ue170006Ev, symObjAddr: 0x1C64, symBinAddr: 0x100004F58, symSize: 0x78 }
  - { offsetInCU: 0xDCFF, offset: 0xDCFF, size: 0x8, addend: 0x0, symName: __ZNSt3__18ios_base18__setstate_nothrowB8ue170006Ej, symObjAddr: 0x1CDC, symBinAddr: 0x100004FD0, symSize: 0x64 }
  - { offsetInCU: 0xDD34, offset: 0xDD34, size: 0x8, addend: 0x0, symName: __ZNKSt3__19basic_iosIcNS_11char_traitsIcEEE10exceptionsB8ue170006Ev, symObjAddr: 0x1D40, symBinAddr: 0x100005034, symSize: 0x24 }
  - { offsetInCU: 0xDD5A, offset: 0xDD5A, size: 0x8, addend: 0x0, symName: __ZNSt3__111char_traitsIcE6assignB8ue170006ERcRKc, symObjAddr: 0x1D64, symBinAddr: 0x100005058, symSize: 0x24 }
  - { offsetInCU: 0xDD8B, offset: 0xDD8B, size: 0x8, addend: 0x0, symName: __ZNSt3__112basic_stringIcNS_11char_traitsIcEENS_9allocatorIcEEE18__get_long_pointerB8ue170006Ev, symObjAddr: 0x1D88, symBinAddr: 0x10000507C, symSize: 0x28 }
  - { offsetInCU: 0xDDB1, offset: 0xDDB1, size: 0x8, addend: 0x0, symName: __ZNSt3__112basic_stringIcNS_11char_traitsIcEENS_9allocatorIcEEE19__get_short_pointerB8ue170006Ev, symObjAddr: 0x1DB0, symBinAddr: 0x1000050A4, symSize: 0x28 }
  - { offsetInCU: 0xDDD7, offset: 0xDDD7, size: 0x8, addend: 0x0, symName: __ZNSt3__112basic_stringIcNS_11char_traitsIcEENS_9allocatorIcEEE16__set_short_sizeB8ue170006Em, symObjAddr: 0x1DD8, symBinAddr: 0x1000050CC, symSize: 0x78 }
  - { offsetInCU: 0xDE0C, offset: 0xDE0C, size: 0x8, addend: 0x0, symName: __ZNSt3__114pointer_traitsIPcE10pointer_toB8ue170006ERc, symObjAddr: 0x1E50, symBinAddr: 0x100005144, symSize: 0x14 }
  - { offsetInCU: 0xDE2F, offset: 0xDE2F, size: 0x8, addend: 0x0, symName: __ZNKSt3__112basic_stringIcNS_11char_traitsIcEENS_9allocatorIcEEE7__allocB8ue170006Ev, symObjAddr: 0x1E64, symBinAddr: 0x100005158, symSize: 0x24 }
  - { offsetInCU: 0xDE55, offset: 0xDE55, size: 0x8, addend: 0x0, symName: __ZNSt3__114numeric_limitsImE3maxB8ue170006Ev, symObjAddr: 0x1E88, symBinAddr: 0x10000517C, symSize: 0x14 }
  - { offsetInCU: 0xDE69, offset: 0xDE69, size: 0x8, addend: 0x0, symName: __ZNKSt3__117__compressed_pairINS_12basic_stringIcNS_11char_traitsIcEENS_9allocatorIcEEE5__repES5_E6secondB8ue170006Ev, symObjAddr: 0x1E9C, symBinAddr: 0x100005190, symSize: 0x24 }
  - { offsetInCU: 0xDE8F, offset: 0xDE8F, size: 0x8, addend: 0x0, symName: __ZNKSt3__122__compressed_pair_elemINS_9allocatorIcEELi1ELb1EE5__getB8ue170006Ev, symObjAddr: 0x1EC0, symBinAddr: 0x1000051B4, symSize: 0x14 }
  - { offsetInCU: 0xDEB5, offset: 0xDEB5, size: 0x8, addend: 0x0, symName: __ZNSt3__123__libcpp_numeric_limitsImLb1EE3maxB8ue170006Ev, symObjAddr: 0x1ED4, symBinAddr: 0x1000051C8, symSize: 0x8 }
  - { offsetInCU: 0xDEC9, offset: 0xDEC9, size: 0x8, addend: 0x0, symName: __ZNSt3__123__libcpp_numeric_limitsIlLb1EE3maxB8ue170006Ev, symObjAddr: 0x1EDC, symBinAddr: 0x1000051D0, symSize: 0x8 }
  - { offsetInCU: 0xDEDD, offset: 0xDEDD, size: 0x8, addend: 0x0, symName: __ZNSt3__111char_traitsIcE11to_int_typeB8ue170006Ec, symObjAddr: 0x1EE4, symBinAddr: 0x1000051D8, symSize: 0x14 }
  - { offsetInCU: 0xDF00, offset: 0xDF00, size: 0x8, addend: 0x0, symName: __Z7isasciii, symObjAddr: 0x1EF8, symBinAddr: 0x1000051EC, symSize: 0x24 }
  - { offsetInCU: 0xDF2D, offset: 0xDF2D, size: 0x8, addend: 0x0, symName: __ZNKSt3__18ios_base10exceptionsB8ue170006Ev, symObjAddr: 0x1F1C, symBinAddr: 0x100005210, symSize: 0x18 }
  - { offsetInCU: 0xDF55, offset: 0xDF55, size: 0x8, addend: 0x0, symName: __ZN2BTIiE10createNodeENSt3__112basic_stringIcNS1_11char_traitsIcEENS1_9allocatorIcEEEERi, symObjAddr: 0x2050, symBinAddr: 0x100005344, symSize: 0x660 }
  - { offsetInCU: 0xDFE0, offset: 0xDFE0, size: 0x8, addend: 0x0, symName: __ZNKSt3__112basic_stringIcNS_11char_traitsIcEENS_9allocatorIcEEE4sizeB8ue170006Ev, symObjAddr: 0x26B0, symBinAddr: 0x1000059A4, symSize: 0x54 }
  - { offsetInCU: 0xE006, offset: 0xE006, size: 0x8, addend: 0x0, symName: __ZNSt3__116allocator_traitsINS_9allocatorIcEEE37select_on_container_copy_constructionB8ue170006IS2_vvEES2_RKS2_, symObjAddr: 0x2704, symBinAddr: 0x1000059F8, symSize: 0x10 }
  - { offsetInCU: 0xE035, offset: 0xE035, size: 0x8, addend: 0x0, symName: __ZNKSt3__112basic_stringIcNS_11char_traitsIcEENS_9allocatorIcEEE13get_allocatorB8ue170006Ev, symObjAddr: 0x2714, symBinAddr: 0x100005A08, symSize: 0x24 }
  - { offsetInCU: 0xE05B, offset: 0xE05B, size: 0x8, addend: 0x0, symName: __ZNSt3__112basic_stringIcNS_11char_traitsIcEENS_9allocatorIcEEEC1B8ue170006ENS_24__uninitialized_size_tagEmRKS4_, symObjAddr: 0x2738, symBinAddr: 0x100005A2C, symSize: 0x3C }
  - { offsetInCU: 0xE0AF, offset: 0xE0AF, size: 0x8, addend: 0x0, symName: __ZNSt3__112basic_stringIcNS_11char_traitsIcEENS_9allocatorIcEEE13__get_pointerB8ue170006Ev, symObjAddr: 0x2788, symBinAddr: 0x100005A7C, symSize: 0x54 }
  - { offsetInCU: 0xE0D5, offset: 0xE0D5, size: 0x8, addend: 0x0, symName: __ZNSt3__111char_traitsIcE4copyB8ue170006EPcPKcm, symObjAddr: 0x27DC, symBinAddr: 0x100005AD0, symSize: 0x64 }
  - { offsetInCU: 0xE114, offset: 0xE114, size: 0x8, addend: 0x0, symName: __ZNSt3__111char_traitsIcE6assignB8ue170006EPcmc, symObjAddr: 0x2840, symBinAddr: 0x100005B34, symSize: 0x58 }
  - { offsetInCU: 0xE153, offset: 0xE153, size: 0x8, addend: 0x0, symName: __ZNKSt3__112basic_stringIcNS_11char_traitsIcEENS_9allocatorIcEEE15__get_long_sizeB8ue170006Ev, symObjAddr: 0x2898, symBinAddr: 0x100005B8C, symSize: 0x28 }
  - { offsetInCU: 0xE179, offset: 0xE179, size: 0x8, addend: 0x0, symName: __ZNKSt3__112basic_stringIcNS_11char_traitsIcEENS_9allocatorIcEEE16__get_short_sizeB8ue170006Ev, symObjAddr: 0x28C0, symBinAddr: 0x100005BB4, symSize: 0x34 }
  - { offsetInCU: 0xE19F, offset: 0xE19F, size: 0x8, addend: 0x0, symName: __ZNSt3__112basic_stringIcNS_11char_traitsIcEENS_9allocatorIcEEEC2B8ue170006ENS_24__uninitialized_size_tagEmRKS4_, symObjAddr: 0x28F4, symBinAddr: 0x100005BE8, symSize: 0x110 }
  - { offsetInCU: 0xE220, offset: 0xE220, size: 0x8, addend: 0x0, symName: __ZNSt3__117__compressed_pairINS_12basic_stringIcNS_11char_traitsIcEENS_9allocatorIcEEE5__repES5_EC1B8ue170006INS_18__default_init_tagERKS5_EEOT_OT0_, symObjAddr: 0x2A04, symBinAddr: 0x100005CF8, symSize: 0x3C }
  - { offsetInCU: 0xE278, offset: 0xE278, size: 0x8, addend: 0x0, symName: __ZNKSt3__112basic_stringIcNS_11char_traitsIcEENS_9allocatorIcEEE20__throw_length_errorB8ue170006Ev, symObjAddr: 0x2A40, symBinAddr: 0x100005D34, symSize: 0x1C }
  - { offsetInCU: 0xE29E, offset: 0xE29E, size: 0x8, addend: 0x0, symName: __ZNSt3__112basic_stringIcNS_11char_traitsIcEENS_9allocatorIcEEE13__fits_in_ssoB8ue170006Em, symObjAddr: 0x2A5C, symBinAddr: 0x100005D50, symSize: 0x4C }
  - { offsetInCU: 0xE2C2, offset: 0xE2C2, size: 0x8, addend: 0x0, symName: __ZNSt3__117__compressed_pairINS_12basic_stringIcNS_11char_traitsIcEENS_9allocatorIcEEE5__repES5_EC2B8ue170006INS_18__default_init_tagERKS5_EEOT_OT0_, symObjAddr: 0x2AA8, symBinAddr: 0x100005D9C, symSize: 0x40 }
  - { offsetInCU: 0xE31A, offset: 0xE31A, size: 0x8, addend: 0x0, symName: __ZNSt3__122__compressed_pair_elemINS_9allocatorIcEELi1ELb1EEC2B8ue170006IRKS2_vEEOT_, symObjAddr: 0x2AE8, symBinAddr: 0x100005DDC, symSize: 0x18 }
  - { offsetInCU: 0xE35C, offset: 0xE35C, size: 0x8, addend: 0x0, symName: __ZNSt12length_errorC1B8ue170006EPKc, symObjAddr: 0x2B64, symBinAddr: 0x100005E58, symSize: 0x34 }
  - { offsetInCU: 0xE394, offset: 0xE394, size: 0x8, addend: 0x0, symName: __ZNSt12length_errorC2B8ue170006EPKc, symObjAddr: 0x2B98, symBinAddr: 0x100005E8C, symSize: 0x4C }
  - { offsetInCU: 0xE403, offset: 0xE403, size: 0x8, addend: 0x0, symName: __ZNKSt3__114__copy_trivialclB8ue170006IKccLi0EEENS_4pairIPT_PT0_EES5_S5_S7_, symObjAddr: 0x2E04, symBinAddr: 0x1000060F8, symSize: 0x48 }
  - { offsetInCU: 0xE484, offset: 0xE484, size: 0x8, addend: 0x0, symName: __ZNSt3__14pairIPKcS2_EC1B8ue170006ERKS2_S5_, symObjAddr: 0x2F80, symBinAddr: 0x100006274, symSize: 0x3C }
  - { offsetInCU: 0xE4CA, offset: 0xE4CA, size: 0x8, addend: 0x0, symName: __ZNSt3__14pairIPKcS2_EC2B8ue170006ERKS2_S5_, symObjAddr: 0x2FBC, symBinAddr: 0x1000062B0, symSize: 0x34 }
  - { offsetInCU: 0xE510, offset: 0xE510, size: 0x8, addend: 0x0, symName: __ZNSt3__118__unwrap_iter_implIPKcLb1EE8__unwrapB8ue170006ES2_, symObjAddr: 0x2FF0, symBinAddr: 0x1000062E4, symSize: 0x24 }
  - { offsetInCU: 0xE533, offset: 0xE533, size: 0x8, addend: 0x0, symName: __ZNSt3__14pairIPKcPcEC1B8ue170006ERKS2_RKS3_, symObjAddr: 0x3164, symBinAddr: 0x100006458, symSize: 0x3C }
  - { offsetInCU: 0xE579, offset: 0xE579, size: 0x8, addend: 0x0, symName: __ZNSt3__14pairIPKcPcEC2B8ue170006ERKS2_RKS3_, symObjAddr: 0x31A0, symBinAddr: 0x100006494, symSize: 0x34 }
  - { offsetInCU: 0xE5BF, offset: 0xE5BF, size: 0x8, addend: 0x0, symName: __ZNSt3__118__unwrap_iter_implIPcLb1EE8__unwrapB8ue170006ES1_, symObjAddr: 0x31D4, symBinAddr: 0x1000064C8, symSize: 0x24 }
  - { offsetInCU: 0xE5E2, offset: 0xE5E2, size: 0x8, addend: 0x0, symName: __ZNSt3__118__unwrap_iter_implIPKcLb1EE8__rewrapB8ue170006ES2_S2_, symObjAddr: 0x3248, symBinAddr: 0x10000653C, symSize: 0x48 }
  - { offsetInCU: 0xE613, offset: 0xE613, size: 0x8, addend: 0x0, symName: __ZNSt3__118__unwrap_iter_implIPcLb1EE8__rewrapB8ue170006ES1_S1_, symObjAddr: 0x3290, symBinAddr: 0x100006584, symSize: 0x48 }
  - { offsetInCU: 0xE671, offset: 0xE671, size: 0x8, addend: 0x0, symName: __ZNSt3__15stackIP6BTNodeIiENS_5dequeIS3_NS_9allocatorIS3_EEEEEC1B8ue170006Ev, symObjAddr: 0x3394, symBinAddr: 0x100006688, symSize: 0x2C }
  - { offsetInCU: 0xE69B, offset: 0xE69B, size: 0x8, addend: 0x0, symName: __ZNKSt3__112basic_stringIcNS_11char_traitsIcEENS_9allocatorIcEEE6lengthB8ue170006Ev, symObjAddr: 0x33C0, symBinAddr: 0x1000066B4, symSize: 0x24 }
  - { offsetInCU: 0xE6C1, offset: 0xE6C1, size: 0x8, addend: 0x0, symName: __ZNSt3__112basic_stringIcNS_11char_traitsIcEENS_9allocatorIcEEEixB8ue170006Em, symObjAddr: 0x33E4, symBinAddr: 0x1000066D8, symSize: 0x30 }
  - { offsetInCU: 0xE6F6, offset: 0xE6F6, size: 0x8, addend: 0x0, symName: __ZNSt3__15stackIP6BTNodeIiENS_5dequeIS3_NS_9allocatorIS3_EEEEE4pushB8ue170006ERKS3_, symObjAddr: 0x3414, symBinAddr: 0x100006708, symSize: 0x2C }
  - { offsetInCU: 0xE72B, offset: 0xE72B, size: 0x8, addend: 0x0, symName: __ZNKSt3__15stackIP6BTNodeIiENS_5dequeIS3_NS_9allocatorIS3_EEEEE5emptyB8ue170006Ev, symObjAddr: 0x3440, symBinAddr: 0x100006734, symSize: 0x28 }
  - { offsetInCU: 0xE751, offset: 0xE751, size: 0x8, addend: 0x0, symName: __ZN2BTIiE21getOperatorPrecedenceEc, symObjAddr: 0x3468, symBinAddr: 0x10000675C, symSize: 0x6C }
  - { offsetInCU: 0xE785, offset: 0xE785, size: 0x8, addend: 0x0, symName: __ZNSt3__15stackIP6BTNodeIiENS_5dequeIS3_NS_9allocatorIS3_EEEEE3topB8ue170006Ev, symObjAddr: 0x34EC, symBinAddr: 0x1000067E0, symSize: 0x24 }
  - { offsetInCU: 0xE7AB, offset: 0xE7AB, size: 0x8, addend: 0x0, symName: __ZN6BTNodeIiE7getDataEv, symObjAddr: 0x3510, symBinAddr: 0x100006804, symSize: 0x18 }
  - { offsetInCU: 0xE7D1, offset: 0xE7D1, size: 0x8, addend: 0x0, symName: __ZN6BTNodeIiEC1Ei, symObjAddr: 0x3528, symBinAddr: 0x10000681C, symSize: 0x34 }
  - { offsetInCU: 0xE809, offset: 0xE809, size: 0x8, addend: 0x0, symName: __ZNSt3__15stackIP6BTNodeIiENS_5dequeIS3_NS_9allocatorIS3_EEEEE3popB8ue170006Ev, symObjAddr: 0x355C, symBinAddr: 0x100006850, symSize: 0x24 }
  - { offsetInCU: 0xE82F, offset: 0xE82F, size: 0x8, addend: 0x0, symName: __ZN2BTIiE10isOperatorEc, symObjAddr: 0x3580, symBinAddr: 0x100006874, symSize: 0x84 }
  - { offsetInCU: 0xE863, offset: 0xE863, size: 0x8, addend: 0x0, symName: __ZN6BTNodeIiEC1EPS0_, symObjAddr: 0x3604, symBinAddr: 0x1000068F8, symSize: 0x34 }
  - { offsetInCU: 0xE89B, offset: 0xE89B, size: 0x8, addend: 0x0, symName: __ZN6BTNodeIiEC1Ec, symObjAddr: 0x3638, symBinAddr: 0x10000692C, symSize: 0x34 }
  - { offsetInCU: 0xE8D3, offset: 0xE8D3, size: 0x8, addend: 0x0, symName: __ZNSt3__15stackIP6BTNodeIiENS_5dequeIS3_NS_9allocatorIS3_EEEEED1Ev, symObjAddr: 0x366C, symBinAddr: 0x100006960, symSize: 0x2C }
  - { offsetInCU: 0xE8FF, offset: 0xE8FF, size: 0x8, addend: 0x0, symName: __ZNSt3__15stackIP6BTNodeIiENS_5dequeIS3_NS_9allocatorIS3_EEEEEC2B8ue170006Ev, symObjAddr: 0x3698, symBinAddr: 0x10000698C, symSize: 0x2C }
  - { offsetInCU: 0xE929, offset: 0xE929, size: 0x8, addend: 0x0, symName: __ZNSt3__15dequeIP6BTNodeIiENS_9allocatorIS3_EEEC1B8ue170006Ev, symObjAddr: 0x36C4, symBinAddr: 0x1000069B8, symSize: 0x2C }
  - { offsetInCU: 0xE953, offset: 0xE953, size: 0x8, addend: 0x0, symName: __ZNSt3__15dequeIP6BTNodeIiENS_9allocatorIS3_EEEC2B8ue170006Ev, symObjAddr: 0x36F0, symBinAddr: 0x1000069E4, symSize: 0x84 }
  - { offsetInCU: 0xE97D, offset: 0xE97D, size: 0x8, addend: 0x0, symName: __ZNSt3__114__split_bufferIPP6BTNodeIiENS_9allocatorIS4_EEEC1B8ue170006Ev, symObjAddr: 0x3774, symBinAddr: 0x100006A68, symSize: 0x2C }
  - { offsetInCU: 0xE9AC, offset: 0xE9AC, size: 0x8, addend: 0x0, symName: __ZNSt3__117__compressed_pairImNS_9allocatorIP6BTNodeIiEEEEC1B8ue170006IiNS_18__default_init_tagEEEOT_OT0_, symObjAddr: 0x37A0, symBinAddr: 0x100006A94, symSize: 0x3C }
  - { offsetInCU: 0xEA04, offset: 0xEA04, size: 0x8, addend: 0x0, symName: __ZNKSt3__15dequeIP6BTNodeIiENS_9allocatorIS3_EEE14__annotate_newB8ue170006Em, symObjAddr: 0x37DC, symBinAddr: 0x100006AD0, symSize: 0xDC }
  - { offsetInCU: 0xEA39, offset: 0xEA39, size: 0x8, addend: 0x0, symName: __ZNSt3__114__split_bufferIPP6BTNodeIiENS_9allocatorIS4_EEED1Ev, symObjAddr: 0x38B8, symBinAddr: 0x100006BAC, symSize: 0x2C }
  - { offsetInCU: 0xEA65, offset: 0xEA65, size: 0x8, addend: 0x0, symName: __ZNSt3__114__split_bufferIPP6BTNodeIiENS_9allocatorIS4_EEEC2B8ue170006Ev, symObjAddr: 0x38E4, symBinAddr: 0x100006BD8, symSize: 0x48 }
  - { offsetInCU: 0xEA94, offset: 0xEA94, size: 0x8, addend: 0x0, symName: __ZNSt3__117__compressed_pairIPPP6BTNodeIiENS_9allocatorIS4_EEEC1B8ue170006IDnNS_18__default_init_tagEEEOT_OT0_, symObjAddr: 0x392C, symBinAddr: 0x100006C20, symSize: 0x3C }
  - { offsetInCU: 0xEAEC, offset: 0xEAEC, size: 0x8, addend: 0x0, symName: __ZNSt3__117__compressed_pairIPPP6BTNodeIiENS_9allocatorIS4_EEEC2B8ue170006IDnNS_18__default_init_tagEEEOT_OT0_, symObjAddr: 0x3968, symBinAddr: 0x100006C5C, symSize: 0x40 }
  - { offsetInCU: 0xEB44, offset: 0xEB44, size: 0x8, addend: 0x0, symName: __ZNSt3__122__compressed_pair_elemIPPP6BTNodeIiELi0ELb0EEC2B8ue170006IDnvEEOT_, symObjAddr: 0x39A8, symBinAddr: 0x100006C9C, symSize: 0x1C }
  - { offsetInCU: 0xEB86, offset: 0xEB86, size: 0x8, addend: 0x0, symName: __ZNSt3__122__compressed_pair_elemINS_9allocatorIPP6BTNodeIiEEELi1ELb1EEC2B8ue170006ENS_18__default_init_tagE, symObjAddr: 0x39C4, symBinAddr: 0x100006CB8, symSize: 0x2C }
  - { offsetInCU: 0xEBBA, offset: 0xEBBA, size: 0x8, addend: 0x0, symName: __ZNSt3__19allocatorIPP6BTNodeIiEEC2B8ue170006Ev, symObjAddr: 0x39F0, symBinAddr: 0x100006CE4, symSize: 0x2C }
  - { offsetInCU: 0xEBE4, offset: 0xEBE4, size: 0x8, addend: 0x0, symName: __ZNSt3__116__non_trivial_ifILb1ENS_9allocatorIPP6BTNodeIiEEEEC2B8ue170006Ev, symObjAddr: 0x3A1C, symBinAddr: 0x100006D10, symSize: 0x14 }
  - { offsetInCU: 0xEC0E, offset: 0xEC0E, size: 0x8, addend: 0x0, symName: __ZNSt3__117__compressed_pairImNS_9allocatorIP6BTNodeIiEEEEC2B8ue170006IiNS_18__default_init_tagEEEOT_OT0_, symObjAddr: 0x3A30, symBinAddr: 0x100006D24, symSize: 0x40 }
  - { offsetInCU: 0xEC66, offset: 0xEC66, size: 0x8, addend: 0x0, symName: __ZNSt3__122__compressed_pair_elemImLi0ELb0EEC2B8ue170006IivEEOT_, symObjAddr: 0x3A70, symBinAddr: 0x100006D64, symSize: 0x24 }
  - { offsetInCU: 0xECA8, offset: 0xECA8, size: 0x8, addend: 0x0, symName: __ZNSt3__122__compressed_pair_elemINS_9allocatorIP6BTNodeIiEEELi1ELb1EEC2B8ue170006ENS_18__default_init_tagE, symObjAddr: 0x3A94, symBinAddr: 0x100006D88, symSize: 0x2C }
  - { offsetInCU: 0xECDC, offset: 0xECDC, size: 0x8, addend: 0x0, symName: __ZNSt3__19allocatorIP6BTNodeIiEEC2B8ue170006Ev, symObjAddr: 0x3AC0, symBinAddr: 0x100006DB4, symSize: 0x2C }
  - { offsetInCU: 0xED06, offset: 0xED06, size: 0x8, addend: 0x0, symName: __ZNSt3__116__non_trivial_ifILb1ENS_9allocatorIP6BTNodeIiEEEEC2B8ue170006Ev, symObjAddr: 0x3AEC, symBinAddr: 0x100006DE0, symSize: 0x14 }
  - { offsetInCU: 0xED30, offset: 0xED30, size: 0x8, addend: 0x0, symName: __ZNKSt3__15dequeIP6BTNodeIiENS_9allocatorIS3_EEE18__annotate_from_toB8ue170006EmmNS6_22__asan_annotation_typeENS6_23__asan_annotation_placeE, symObjAddr: 0x3B00, symBinAddr: 0x100006DF4, symSize: 0x580 }
  - { offsetInCU: 0xEEEE, offset: 0xEEEE, size: 0x8, addend: 0x0, symName: __ZNKSt3__114__split_bufferIPP6BTNodeIiENS_9allocatorIS4_EEE4sizeB8ue170006Ev, symObjAddr: 0x4080, symBinAddr: 0x100007374, symSize: 0x28 }
  - { offsetInCU: 0xEF14, offset: 0xEF14, size: 0x8, addend: 0x0, symName: __ZNKSt3__114__split_bufferIPP6BTNodeIiENS_9allocatorIS4_EEE5beginB8ue170006Ev, symObjAddr: 0x40A8, symBinAddr: 0x10000739C, symSize: 0x18 }
  - { offsetInCU: 0xEF3A, offset: 0xEF3A, size: 0x8, addend: 0x0, symName: __ZNKSt3__15dequeIP6BTNodeIiENS_9allocatorIS3_EEE4sizeB8ue170006Ev, symObjAddr: 0x40C0, symBinAddr: 0x1000073B4, symSize: 0x28 }
  - { offsetInCU: 0xEF60, offset: 0xEF60, size: 0x8, addend: 0x0, symName: __ZNKSt3__15dequeIP6BTNodeIiENS_9allocatorIS3_EEE5emptyB8ue170006Ev, symObjAddr: 0x40E8, symBinAddr: 0x1000073DC, symSize: 0x30 }
  - { offsetInCU: 0xEF86, offset: 0xEF86, size: 0x8, addend: 0x0, symName: __ZNKSt3__15dequeIP6BTNodeIiENS_9allocatorIS3_EEE44__annotate_double_ended_contiguous_containerB8ue170006EPKvS8_S8_S8_S8_S8_, symObjAddr: 0x412C, symBinAddr: 0x100007420, symSize: 0x28 }
  - { offsetInCU: 0xEFF4, offset: 0xEFF4, size: 0x8, addend: 0x0, symName: __ZNKSt3__15dequeIP6BTNodeIiENS_9allocatorIS3_EEE6__sizeB8ue170006Ev, symObjAddr: 0x4154, symBinAddr: 0x100007448, symSize: 0x28 }
  - { offsetInCU: 0xF01A, offset: 0xF01A, size: 0x8, addend: 0x0, symName: __ZNKSt3__117__compressed_pairImNS_9allocatorIP6BTNodeIiEEEE5firstB8ue170006Ev, symObjAddr: 0x417C, symBinAddr: 0x100007470, symSize: 0x24 }
  - { offsetInCU: 0xF040, offset: 0xF040, size: 0x8, addend: 0x0, symName: __ZNKSt3__122__compressed_pair_elemImLi0ELb0EE5__getB8ue170006Ev, symObjAddr: 0x41A0, symBinAddr: 0x100007494, symSize: 0x14 }
  - { offsetInCU: 0xF066, offset: 0xF066, size: 0x8, addend: 0x0, symName: __ZNSt3__114__split_bufferIPP6BTNodeIiENS_9allocatorIS4_EEED2Ev, symObjAddr: 0x41B4, symBinAddr: 0x1000074A8, symSize: 0x80 }
  - { offsetInCU: 0xF092, offset: 0xF092, size: 0x8, addend: 0x0, symName: __ZNSt3__114__split_bufferIPP6BTNodeIiENS_9allocatorIS4_EEE5clearB8ue170006Ev, symObjAddr: 0x4234, symBinAddr: 0x100007528, symSize: 0x28 }
  - { offsetInCU: 0xF0B8, offset: 0xF0B8, size: 0x8, addend: 0x0, symName: __ZNSt3__116allocator_traitsINS_9allocatorIPP6BTNodeIiEEEE10deallocateB8ue170006ERS6_PS5_m, symObjAddr: 0x425C, symBinAddr: 0x100007550, symSize: 0x34 }
  - { offsetInCU: 0xF0FA, offset: 0xF0FA, size: 0x8, addend: 0x0, symName: __ZNSt3__114__split_bufferIPP6BTNodeIiENS_9allocatorIS4_EEE7__allocB8ue170006Ev, symObjAddr: 0x4290, symBinAddr: 0x100007584, symSize: 0x28 }
  - { offsetInCU: 0xF120, offset: 0xF120, size: 0x8, addend: 0x0, symName: __ZNKSt3__114__split_bufferIPP6BTNodeIiENS_9allocatorIS4_EEE8capacityB8ue170006Ev, symObjAddr: 0x42B8, symBinAddr: 0x1000075AC, symSize: 0x40 }
  - { offsetInCU: 0xF146, offset: 0xF146, size: 0x8, addend: 0x0, symName: __ZNSt3__114__split_bufferIPP6BTNodeIiENS_9allocatorIS4_EEE17__destruct_at_endB8ue170006EPS4_, symObjAddr: 0x42F8, symBinAddr: 0x1000075EC, symSize: 0x2C }
  - { offsetInCU: 0xF17A, offset: 0xF17A, size: 0x8, addend: 0x0, symName: __ZNSt3__114__split_bufferIPP6BTNodeIiENS_9allocatorIS4_EEE17__destruct_at_endB8ue170006EPS4_NS_17integral_constantIbLb0EEE, symObjAddr: 0x4324, symBinAddr: 0x100007618, symSize: 0x94 }
  - { offsetInCU: 0xF1BA, offset: 0xF1BA, size: 0x8, addend: 0x0, symName: __ZNSt3__116allocator_traitsINS_9allocatorIPP6BTNodeIiEEEE7destroyB8ue170006IS5_vEEvRS6_PT_, symObjAddr: 0x43B8, symBinAddr: 0x1000076AC, symSize: 0x2C }
  - { offsetInCU: 0xF1F7, offset: 0xF1F7, size: 0x8, addend: 0x0, symName: __ZNSt3__19allocatorIPP6BTNodeIiEE7destroyB8ue170006EPS4_, symObjAddr: 0x43F8, symBinAddr: 0x1000076EC, symSize: 0x14 }
  - { offsetInCU: 0xF22B, offset: 0xF22B, size: 0x8, addend: 0x0, symName: __ZNSt3__19allocatorIPP6BTNodeIiEE10deallocateB8ue170006EPS4_m, symObjAddr: 0x440C, symBinAddr: 0x100007700, symSize: 0x70 }
  - { offsetInCU: 0xF26D, offset: 0xF26D, size: 0x8, addend: 0x0, symName: __ZNSt3__117__compressed_pairIPPP6BTNodeIiENS_9allocatorIS4_EEE6secondB8ue170006Ev, symObjAddr: 0x44F8, symBinAddr: 0x1000077EC, symSize: 0x24 }
  - { offsetInCU: 0xF293, offset: 0xF293, size: 0x8, addend: 0x0, symName: __ZNSt3__122__compressed_pair_elemINS_9allocatorIPP6BTNodeIiEEELi1ELb1EE5__getB8ue170006Ev, symObjAddr: 0x451C, symBinAddr: 0x100007810, symSize: 0x14 }
  - { offsetInCU: 0xF2B9, offset: 0xF2B9, size: 0x8, addend: 0x0, symName: __ZNKSt3__114__split_bufferIPP6BTNodeIiENS_9allocatorIS4_EEE9__end_capB8ue170006Ev, symObjAddr: 0x4530, symBinAddr: 0x100007824, symSize: 0x28 }
  - { offsetInCU: 0xF2DF, offset: 0xF2DF, size: 0x8, addend: 0x0, symName: __ZNKSt3__117__compressed_pairIPPP6BTNodeIiENS_9allocatorIS4_EEE5firstB8ue170006Ev, symObjAddr: 0x4558, symBinAddr: 0x10000784C, symSize: 0x24 }
  - { offsetInCU: 0xF305, offset: 0xF305, size: 0x8, addend: 0x0, symName: __ZNKSt3__122__compressed_pair_elemIPPP6BTNodeIiELi0ELb0EE5__getB8ue170006Ev, symObjAddr: 0x457C, symBinAddr: 0x100007870, symSize: 0x14 }
  - { offsetInCU: 0xF32B, offset: 0xF32B, size: 0x8, addend: 0x0, symName: __ZNSt3__15dequeIP6BTNodeIiENS_9allocatorIS3_EEE9push_backERKS3_, symObjAddr: 0x4590, symBinAddr: 0x100007884, symSize: 0xAC }
  - { offsetInCU: 0xF371, offset: 0xF371, size: 0x8, addend: 0x0, symName: __ZNSt3__15dequeIP6BTNodeIiENS_9allocatorIS3_EEE7__allocB8ue170006Ev, symObjAddr: 0x463C, symBinAddr: 0x100007930, symSize: 0x28 }
  - { offsetInCU: 0xF397, offset: 0xF397, size: 0x8, addend: 0x0, symName: __ZNKSt3__15dequeIP6BTNodeIiENS_9allocatorIS3_EEE12__back_spareB8ue170006Ev, symObjAddr: 0x4664, symBinAddr: 0x100007958, symSize: 0x54 }
  - { offsetInCU: 0xF3BD, offset: 0xF3BD, size: 0x8, addend: 0x0, symName: __ZNSt3__15dequeIP6BTNodeIiENS_9allocatorIS3_EEE19__add_back_capacityEv, symObjAddr: 0x46B8, symBinAddr: 0x1000079AC, symSize: 0x364 }
  - { offsetInCU: 0xF475, offset: 0xF475, size: 0x8, addend: 0x0, symName: __ZNKSt3__15dequeIP6BTNodeIiENS_9allocatorIS3_EEE24__annotate_increase_backB8ue170006Em, symObjAddr: 0x4A1C, symBinAddr: 0x100007D10, symSize: 0x7C }
  - { offsetInCU: 0xF4AA, offset: 0xF4AA, size: 0x8, addend: 0x0, symName: __ZNSt3__116allocator_traitsINS_9allocatorIP6BTNodeIiEEEE9constructB8ue170006IS4_JRKS4_EvEEvRS5_PT_DpOT0_, symObjAddr: 0x4A98, symBinAddr: 0x100007D8C, symSize: 0x34 }
  - { offsetInCU: 0xF501, offset: 0xF501, size: 0x8, addend: 0x0, symName: __ZNSt3__15dequeIP6BTNodeIiENS_9allocatorIS3_EEE3endB8ue170006Ev, symObjAddr: 0x4ACC, symBinAddr: 0x100007DC0, symSize: 0xE0 }
  - { offsetInCU: 0xF545, offset: 0xF545, size: 0x8, addend: 0x0, symName: __ZNKSt3__116__deque_iteratorIP6BTNodeIiEPS3_RS3_PS4_lLl512EEdeB8ue170006Ev, symObjAddr: 0x4BAC, symBinAddr: 0x100007EA0, symSize: 0x18 }
  - { offsetInCU: 0xF56B, offset: 0xF56B, size: 0x8, addend: 0x0, symName: __ZNSt3__15dequeIP6BTNodeIiENS_9allocatorIS3_EEE6__sizeB8ue170006Ev, symObjAddr: 0x4BC4, symBinAddr: 0x100007EB8, symSize: 0x28 }
  - { offsetInCU: 0xF591, offset: 0xF591, size: 0x8, addend: 0x0, symName: __ZNSt3__117__compressed_pairImNS_9allocatorIP6BTNodeIiEEEE6secondB8ue170006Ev, symObjAddr: 0x4BEC, symBinAddr: 0x100007EE0, symSize: 0x24 }
  - { offsetInCU: 0xF5B7, offset: 0xF5B7, size: 0x8, addend: 0x0, symName: __ZNSt3__122__compressed_pair_elemINS_9allocatorIP6BTNodeIiEEELi1ELb1EE5__getB8ue170006Ev, symObjAddr: 0x4C10, symBinAddr: 0x100007F04, symSize: 0x14 }
  - { offsetInCU: 0xF5DD, offset: 0xF5DD, size: 0x8, addend: 0x0, symName: __ZNKSt3__15dequeIP6BTNodeIiENS_9allocatorIS3_EEE10__capacityB8ue170006Ev, symObjAddr: 0x4C24, symBinAddr: 0x100007F18, symSize: 0x60 }
  - { offsetInCU: 0xF603, offset: 0xF603, size: 0x8, addend: 0x0, symName: __ZNKSt3__15dequeIP6BTNodeIiENS_9allocatorIS3_EEE13__front_spareB8ue170006Ev, symObjAddr: 0x4C84, symBinAddr: 0x100007F78, symSize: 0x18 }
  - { offsetInCU: 0xF629, offset: 0xF629, size: 0x8, addend: 0x0, symName: __ZNSt3__114__split_bufferIPP6BTNodeIiENS_9allocatorIS4_EEE5frontB8ue170006Ev, symObjAddr: 0x4C9C, symBinAddr: 0x100007F90, symSize: 0x18 }
  - { offsetInCU: 0xF64F, offset: 0xF64F, size: 0x8, addend: 0x0, symName: __ZNSt3__114__split_bufferIPP6BTNodeIiENS_9allocatorIS4_EEE9pop_frontB8ue170006Ev, symObjAddr: 0x4CB4, symBinAddr: 0x100007FA8, symSize: 0x2C }
  - { offsetInCU: 0xF675, offset: 0xF675, size: 0x8, addend: 0x0, symName: __ZNSt3__114__split_bufferIPP6BTNodeIiENS_9allocatorIS4_EEE9push_backB8ue170006ERKS4_, symObjAddr: 0x4CE0, symBinAddr: 0x100007FD4, symSize: 0x270 }
  - { offsetInCU: 0xF6EE, offset: 0xF6EE, size: 0x8, addend: 0x0, symName: __ZNKSt3__114__split_bufferIPP6BTNodeIiENS_9allocatorIS4_EEE12__back_spareB8ue170006Ev, symObjAddr: 0x4F50, symBinAddr: 0x100008244, symSize: 0x40 }
  - { offsetInCU: 0xF714, offset: 0xF714, size: 0x8, addend: 0x0, symName: __ZNSt3__114__split_bufferIPP6BTNodeIiENS_9allocatorIS4_EEE9push_backEOS4_, symObjAddr: 0x4F90, symBinAddr: 0x100008284, symSize: 0x270 }
  - { offsetInCU: 0xF78D, offset: 0xF78D, size: 0x8, addend: 0x0, symName: __ZNSt3__116allocator_traitsINS_9allocatorIP6BTNodeIiEEEE8allocateB8ue170006ERS5_m, symObjAddr: 0x5200, symBinAddr: 0x1000084F4, symSize: 0x2C }
  - { offsetInCU: 0xF7C0, offset: 0xF7C0, size: 0x8, addend: 0x0, symName: __ZNSt3__114__split_bufferIPP6BTNodeIiENS_9allocatorIS4_EEE10push_frontEOS4_, symObjAddr: 0x522C, symBinAddr: 0x100008520, symSize: 0x26C }
  - { offsetInCU: 0xF839, offset: 0xF839, size: 0x8, addend: 0x0, symName: __ZNKSt3__15dequeIP6BTNodeIiENS_9allocatorIS3_EEE22__annotate_whole_blockB8ue170006EmNS6_22__asan_annotation_typeE, symObjAddr: 0x5498, symBinAddr: 0x10000878C, symSize: 0xAC }
  - { offsetInCU: 0xF8AA, offset: 0xF8AA, size: 0x8, addend: 0x0, symName: __ZNSt3__114__split_bufferIPP6BTNodeIiERNS_9allocatorIS4_EEEC1EmmS7_, symObjAddr: 0x5570, symBinAddr: 0x100008864, symSize: 0x44 }
  - { offsetInCU: 0xF905, offset: 0xF905, size: 0x8, addend: 0x0, symName: __ZNSt3__122__allocator_destructorINS_9allocatorIP6BTNodeIiEEEEC1B8ue170006ERS5_m, symObjAddr: 0x55B4, symBinAddr: 0x1000088A8, symSize: 0x3C }
  - { offsetInCU: 0xF9CD, offset: 0xF9CD, size: 0x8, addend: 0x0, symName: __ZNSt3__110unique_ptrIPP6BTNodeIiENS_22__allocator_destructorINS_9allocatorIS3_EEEEEC1B8ue170006ILb1EvEES4_NS_16__dependent_typeINS_27__unique_ptr_deleter_sfinaeIS8_EEXT_EE20__good_rval_ref_typeE, symObjAddr: 0x55F0, symBinAddr: 0x1000088E4, symSize: 0x3C }
  - { offsetInCU: 0xFA1E, offset: 0xFA1E, size: 0x8, addend: 0x0, symName: __ZNSt3__114__split_bufferIPP6BTNodeIiERNS_9allocatorIS4_EEE9push_backEOS4_, symObjAddr: 0x562C, symBinAddr: 0x100008920, symSize: 0x270 }
  - { offsetInCU: 0xFA97, offset: 0xFA97, size: 0x8, addend: 0x0, symName: __ZNKSt3__110unique_ptrIPP6BTNodeIiENS_22__allocator_destructorINS_9allocatorIS3_EEEEE3getB8ue170006Ev, symObjAddr: 0x589C, symBinAddr: 0x100008B90, symSize: 0x28 }
  - { offsetInCU: 0xFABD, offset: 0xFABD, size: 0x8, addend: 0x0, symName: __ZNSt3__110unique_ptrIPP6BTNodeIiENS_22__allocator_destructorINS_9allocatorIS3_EEEEE7releaseB8ue170006Ev, symObjAddr: 0x58C4, symBinAddr: 0x100008BB8, symSize: 0x44 }
  - { offsetInCU: 0xFAF2, offset: 0xFAF2, size: 0x8, addend: 0x0, symName: __ZNSt3__114__split_bufferIPP6BTNodeIiENS_9allocatorIS4_EEE3endB8ue170006Ev, symObjAddr: 0x5908, symBinAddr: 0x100008BFC, symSize: 0x18 }
  - { offsetInCU: 0xFB18, offset: 0xFB18, size: 0x8, addend: 0x0, symName: __ZNSt3__114__split_bufferIPP6BTNodeIiENS_9allocatorIS4_EEE5beginB8ue170006Ev, symObjAddr: 0x5920, symBinAddr: 0x100008C14, symSize: 0x18 }
  - { offsetInCU: 0xFB3E, offset: 0xFB3E, size: 0x8, addend: 0x0, symName: __ZNSt3__114__split_bufferIPP6BTNodeIiERNS_9allocatorIS4_EEE10push_frontERKS4_, symObjAddr: 0x5938, symBinAddr: 0x100008C2C, symSize: 0x26C }
  - { offsetInCU: 0xFBB7, offset: 0xFBB7, size: 0x8, addend: 0x0, symName: __ZNSt3__114__split_bufferIPP6BTNodeIiENS_9allocatorIS4_EEE9__end_capB8ue170006Ev, symObjAddr: 0x5BE0, symBinAddr: 0x100008ED4, symSize: 0x28 }
  - { offsetInCU: 0xFBDD, offset: 0xFBDD, size: 0x8, addend: 0x0, symName: __ZNSt3__114__split_bufferIPP6BTNodeIiERNS_9allocatorIS4_EEE9__end_capB8ue170006Ev, symObjAddr: 0x5C08, symBinAddr: 0x100008EFC, symSize: 0x28 }
  - { offsetInCU: 0xFC03, offset: 0xFC03, size: 0x8, addend: 0x0, symName: __ZNSt3__110unique_ptrIPP6BTNodeIiENS_22__allocator_destructorINS_9allocatorIS3_EEEEED1B8ue170006Ev, symObjAddr: 0x5C30, symBinAddr: 0x100008F24, symSize: 0x2C }
  - { offsetInCU: 0xFC2D, offset: 0xFC2D, size: 0x8, addend: 0x0, symName: __ZNSt3__114__split_bufferIPP6BTNodeIiERNS_9allocatorIS4_EEED1Ev, symObjAddr: 0x5C5C, symBinAddr: 0x100008F50, symSize: 0x2C }
  - { offsetInCU: 0xFC59, offset: 0xFC59, size: 0x8, addend: 0x0, symName: __ZNSt3__114__split_bufferIPP6BTNodeIiENS_9allocatorIS4_EEE19__destruct_at_beginB8ue170006EPS4_, symObjAddr: 0x5C88, symBinAddr: 0x100008F7C, symSize: 0x2C }
  - { offsetInCU: 0xFC8D, offset: 0xFC8D, size: 0x8, addend: 0x0, symName: __ZNSt3__114__split_bufferIPP6BTNodeIiENS_9allocatorIS4_EEE19__destruct_at_beginEPS4_NS_17integral_constantIbLb1EEE, symObjAddr: 0x5CB4, symBinAddr: 0x100008FA8, symSize: 0x20 }
  - { offsetInCU: 0xFCCD, offset: 0xFCCD, size: 0x8, addend: 0x0, symName: __ZNSt3__114__split_bufferIPP6BTNodeIiERNS_9allocatorIS4_EEE18__construct_at_endINS_13move_iteratorIPS4_EEEENS_9enable_ifIXsr31__has_forward_iterator_categoryIT_EE5valueEvE4typeESE_SE_, symObjAddr: 0x5D14, symBinAddr: 0x100009008, symSize: 0x60 }
  - { offsetInCU: 0xFD1A, offset: 0xFD1A, size: 0x8, addend: 0x0, symName: __ZNSt3__113move_iteratorIPPP6BTNodeIiEEC1B8ue170006ES5_, symObjAddr: 0x5D74, symBinAddr: 0x100009068, symSize: 0x34 }
  - { offsetInCU: 0xFD52, offset: 0xFD52, size: 0x8, addend: 0x0, symName: __ZNSt3__116allocator_traitsINS_9allocatorIPP6BTNodeIiEEEE9constructB8ue170006IS5_JRKS5_EvEEvRS6_PT_DpOT0_, symObjAddr: 0x5DA8, symBinAddr: 0x10000909C, symSize: 0x34 }
  - { offsetInCU: 0xFDCC, offset: 0xFDCC, size: 0x8, addend: 0x0, symName: __ZNKSt3__114__move_trivialclB8ue170006IPP6BTNodeIiES5_Li0EEENS_4pairIPT_PT0_EES8_S8_SA_, symObjAddr: 0x5F78, symBinAddr: 0x10000926C, symSize: 0x48 }
  - { offsetInCU: 0xFE34, offset: 0xFE34, size: 0x8, addend: 0x0, symName: __ZNSt3__14pairIPPP6BTNodeIiES5_EC1B8ue170006ERKS5_S8_, symObjAddr: 0x61F0, symBinAddr: 0x1000094E4, symSize: 0x3C }
  - { offsetInCU: 0xFE7A, offset: 0xFE7A, size: 0x8, addend: 0x0, symName: __ZNSt3__14pairIPPP6BTNodeIiES5_EC2B8ue170006ERKS5_S8_, symObjAddr: 0x622C, symBinAddr: 0x100009520, symSize: 0x34 }
  - { offsetInCU: 0xFEC0, offset: 0xFEC0, size: 0x8, addend: 0x0, symName: __ZNSt3__118__unwrap_iter_implIPPP6BTNodeIiELb1EE8__unwrapB8ue170006ES5_, symObjAddr: 0x6260, symBinAddr: 0x100009554, symSize: 0x24 }
  - { offsetInCU: 0xFEE3, offset: 0xFEE3, size: 0x8, addend: 0x0, symName: __ZNSt3__118__unwrap_iter_implIPPP6BTNodeIiELb1EE8__rewrapB8ue170006ES5_S5_, symObjAddr: 0x6284, symBinAddr: 0x100009578, symSize: 0x50 }
  - { offsetInCU: 0xFF14, offset: 0xFF14, size: 0x8, addend: 0x0, symName: __ZNSt3__114__split_bufferIPP6BTNodeIiERNS_9allocatorIS4_EEE28__construct_at_end_with_sizeINS_13move_iteratorIPS4_EEEEvT_m, symObjAddr: 0x62D4, symBinAddr: 0x1000095C8, symSize: 0xE4 }
  - { offsetInCU: 0xFF7A, offset: 0xFF7A, size: 0x8, addend: 0x0, symName: __ZNSt3__114__split_bufferIPP6BTNodeIiERNS_9allocatorIS4_EEE21_ConstructTransactionC1B8ue170006EPPS4_m, symObjAddr: 0x63F4, symBinAddr: 0x1000096E8, symSize: 0x3C }
  - { offsetInCU: 0xFFC0, offset: 0xFFC0, size: 0x8, addend: 0x0, symName: __ZNSt3__116allocator_traitsINS_9allocatorIPP6BTNodeIiEEEE9constructB8ue170006IS5_JS5_EvEEvRS6_PT_DpOT0_, symObjAddr: 0x6430, symBinAddr: 0x100009724, symSize: 0x34 }
  - { offsetInCU: 0x10017, offset: 0x10017, size: 0x8, addend: 0x0, symName: __ZNSt3__114__split_bufferIPP6BTNodeIiERNS_9allocatorIS4_EEE7__allocB8ue170006Ev, symObjAddr: 0x6464, symBinAddr: 0x100009758, symSize: 0x28 }
  - { offsetInCU: 0x1003D, offset: 0x1003D, size: 0x8, addend: 0x0, symName: __ZNKSt3__113move_iteratorIPPP6BTNodeIiEEdeB8ue170006Ev, symObjAddr: 0x648C, symBinAddr: 0x100009780, symSize: 0x18 }
  - { offsetInCU: 0x10063, offset: 0x10063, size: 0x8, addend: 0x0, symName: __ZNSt3__113move_iteratorIPPP6BTNodeIiEEppB8ue170006Ev, symObjAddr: 0x64A4, symBinAddr: 0x100009798, symSize: 0x20 }
  - { offsetInCU: 0x10089, offset: 0x10089, size: 0x8, addend: 0x0, symName: __ZNSt3__114__split_bufferIPP6BTNodeIiERNS_9allocatorIS4_EEE21_ConstructTransactionD1B8ue170006Ev, symObjAddr: 0x64C4, symBinAddr: 0x1000097B8, symSize: 0x2C }
  - { offsetInCU: 0x100B3, offset: 0x100B3, size: 0x8, addend: 0x0, symName: __ZNSt3__114__split_bufferIPP6BTNodeIiERNS_9allocatorIS4_EEE21_ConstructTransactionC2B8ue170006EPPS4_m, symObjAddr: 0x64F0, symBinAddr: 0x1000097E4, symSize: 0x44 }
  - { offsetInCU: 0x100F9, offset: 0x100F9, size: 0x8, addend: 0x0, symName: __ZNSt3__19allocatorIPP6BTNodeIiEE9constructB8ue170006IS4_JS4_EEEvPT_DpOT0_, symObjAddr: 0x6534, symBinAddr: 0x100009828, symSize: 0x28 }
  - { offsetInCU: 0x1014F, offset: 0x1014F, size: 0x8, addend: 0x0, symName: __ZNSt3__117__compressed_pairIPPP6BTNodeIiERNS_9allocatorIS4_EEE6secondB8ue170006Ev, symObjAddr: 0x655C, symBinAddr: 0x100009850, symSize: 0x28 }
  - { offsetInCU: 0x10175, offset: 0x10175, size: 0x8, addend: 0x0, symName: __ZNSt3__122__compressed_pair_elemIRNS_9allocatorIPP6BTNodeIiEEELi1ELb0EE5__getB8ue170006Ev, symObjAddr: 0x6584, symBinAddr: 0x100009878, symSize: 0x18 }
  - { offsetInCU: 0x1019B, offset: 0x1019B, size: 0x8, addend: 0x0, symName: __ZNSt3__114__split_bufferIPP6BTNodeIiERNS_9allocatorIS4_EEE21_ConstructTransactionD2B8ue170006Ev, symObjAddr: 0x659C, symBinAddr: 0x100009890, symSize: 0x20 }
  - { offsetInCU: 0x101C5, offset: 0x101C5, size: 0x8, addend: 0x0, symName: __ZNKSt3__113move_iteratorIPPP6BTNodeIiEE4baseB8ue170006Ev, symObjAddr: 0x6634, symBinAddr: 0x100009928, symSize: 0x18 }
  - { offsetInCU: 0x101EB, offset: 0x101EB, size: 0x8, addend: 0x0, symName: __ZNSt3__113move_iteratorIPPP6BTNodeIiEEC2B8ue170006ES5_, symObjAddr: 0x664C, symBinAddr: 0x100009940, symSize: 0x20 }
  - { offsetInCU: 0x10223, offset: 0x10223, size: 0x8, addend: 0x0, symName: __ZNSt3__19allocatorIPP6BTNodeIiEE9constructB8ue170006IS4_JRKS4_EEEvPT_DpOT0_, symObjAddr: 0x666C, symBinAddr: 0x100009960, symSize: 0x28 }
  - { offsetInCU: 0x10279, offset: 0x10279, size: 0x8, addend: 0x0, symName: __ZNSt3__19allocatorIP6BTNodeIiEE8allocateB8ue170006Em, symObjAddr: 0x6694, symBinAddr: 0x100009988, symSize: 0x84 }
  - { offsetInCU: 0x102B7, offset: 0x102B7, size: 0x8, addend: 0x0, symName: __ZNSt3__116allocator_traitsINS_9allocatorIP6BTNodeIiEEEE8max_sizeB8ue170006IS5_vEEmRKS5_, symObjAddr: 0x6718, symBinAddr: 0x100009A0C, symSize: 0x24 }
  - { offsetInCU: 0x102E5, offset: 0x102E5, size: 0x8, addend: 0x0, symName: __ZNKSt3__19allocatorIP6BTNodeIiEE8max_sizeB8ue170006Ev, symObjAddr: 0x673C, symBinAddr: 0x100009A30, symSize: 0x14 }
  - { offsetInCU: 0x10315, offset: 0x10315, size: 0x8, addend: 0x0, symName: __ZNKSt3__123__move_backward_trivialclB8ue170006IPP6BTNodeIiES5_Li0EEENS_4pairIPT_PT0_EES8_S8_SA_, symObjAddr: 0x68CC, symBinAddr: 0x100009BC0, symSize: 0x48 }
  - { offsetInCU: 0x1037D, offset: 0x1037D, size: 0x8, addend: 0x0, symName: __ZNKSt3__15dequeIP6BTNodeIiENS_9allocatorIS3_EEE23__annotate_poison_blockB8ue170006EPKvS8_, symObjAddr: 0x69DC, symBinAddr: 0x100009CD0, symSize: 0x44 }
  - { offsetInCU: 0x103CB, offset: 0x103CB, size: 0x8, addend: 0x0, symName: __ZNKSt3__16__lessIvvEclB8ue170006ImmEEbRKT_RKT0_, symObjAddr: 0x6A74, symBinAddr: 0x100009D68, symSize: 0x34 }
  - { offsetInCU: 0x1041F, offset: 0x1041F, size: 0x8, addend: 0x0, symName: __ZNSt3__114__split_bufferIPP6BTNodeIiERNS_9allocatorIS4_EEEC2EmmS7_, symObjAddr: 0x6AA8, symBinAddr: 0x100009D9C, symSize: 0xD4 }
  - { offsetInCU: 0x10493, offset: 0x10493, size: 0x8, addend: 0x0, symName: __ZNSt3__117__compressed_pairIPPP6BTNodeIiERNS_9allocatorIS4_EEEC1B8ue170006IDnS8_EEOT_OT0_, symObjAddr: 0x6B7C, symBinAddr: 0x100009E70, symSize: 0x3C }
  - { offsetInCU: 0x104EB, offset: 0x104EB, size: 0x8, addend: 0x0, symName: __ZNSt3__117__compressed_pairIPPP6BTNodeIiERNS_9allocatorIS4_EEEC2B8ue170006IDnS8_EEOT_OT0_, symObjAddr: 0x6BF8, symBinAddr: 0x100009EEC, symSize: 0x48 }
  - { offsetInCU: 0x10543, offset: 0x10543, size: 0x8, addend: 0x0, symName: __ZNSt3__122__compressed_pair_elemIRNS_9allocatorIPP6BTNodeIiEEELi1ELb0EEC2B8ue170006IS7_vEEOT_, symObjAddr: 0x6C40, symBinAddr: 0x100009F34, symSize: 0x20 }
  - { offsetInCU: 0x10585, offset: 0x10585, size: 0x8, addend: 0x0, symName: __ZNSt3__19allocatorIPP6BTNodeIiEE8allocateB8ue170006Em, symObjAddr: 0x6C60, symBinAddr: 0x100009F54, symSize: 0x84 }
  - { offsetInCU: 0x105C3, offset: 0x105C3, size: 0x8, addend: 0x0, symName: __ZNSt3__116allocator_traitsINS_9allocatorIPP6BTNodeIiEEEE8max_sizeB8ue170006IS6_vEEmRKS6_, symObjAddr: 0x6CE4, symBinAddr: 0x100009FD8, symSize: 0x24 }
  - { offsetInCU: 0x105F1, offset: 0x105F1, size: 0x8, addend: 0x0, symName: __ZNKSt3__19allocatorIPP6BTNodeIiEE8max_sizeB8ue170006Ev, symObjAddr: 0x6D08, symBinAddr: 0x100009FFC, symSize: 0x14 }
  - { offsetInCU: 0x10617, offset: 0x10617, size: 0x8, addend: 0x0, symName: __ZNSt3__122__allocator_destructorINS_9allocatorIP6BTNodeIiEEEEC2B8ue170006ERS5_m, symObjAddr: 0x6D1C, symBinAddr: 0x10000A010, symSize: 0x2C }
  - { offsetInCU: 0x1065D, offset: 0x1065D, size: 0x8, addend: 0x0, symName: __ZNSt3__110unique_ptrIPP6BTNodeIiENS_22__allocator_destructorINS_9allocatorIS3_EEEEEC2B8ue170006ILb1EvEES4_NS_16__dependent_typeINS_27__unique_ptr_deleter_sfinaeIS8_EEXT_EE20__good_rval_ref_typeE, symObjAddr: 0x6D48, symBinAddr: 0x10000A03C, symSize: 0x5C }
  - { offsetInCU: 0x106AE, offset: 0x106AE, size: 0x8, addend: 0x0, symName: __ZNSt3__117__compressed_pairIPP6BTNodeIiENS_22__allocator_destructorINS_9allocatorIS3_EEEEEC1B8ue170006IRS4_S8_EEOT_OT0_, symObjAddr: 0x6DA4, symBinAddr: 0x10000A098, symSize: 0x3C }
  - { offsetInCU: 0x10706, offset: 0x10706, size: 0x8, addend: 0x0, symName: __ZNSt3__117__compressed_pairIPP6BTNodeIiENS_22__allocator_destructorINS_9allocatorIS3_EEEEEC2B8ue170006IRS4_S8_EEOT_OT0_, symObjAddr: 0x6DE0, symBinAddr: 0x10000A0D4, symSize: 0x48 }
  - { offsetInCU: 0x1075E, offset: 0x1075E, size: 0x8, addend: 0x0, symName: __ZNSt3__122__compressed_pair_elemIPP6BTNodeIiELi0ELb0EEC2B8ue170006IRS4_vEEOT_, symObjAddr: 0x6E28, symBinAddr: 0x10000A11C, symSize: 0x24 }
  - { offsetInCU: 0x107A0, offset: 0x107A0, size: 0x8, addend: 0x0, symName: __ZNSt3__122__compressed_pair_elemINS_22__allocator_destructorINS_9allocatorIP6BTNodeIiEEEEELi1ELb0EEC2B8ue170006IS7_vEEOT_, symObjAddr: 0x6E4C, symBinAddr: 0x10000A140, symSize: 0x24 }
  - { offsetInCU: 0x107E2, offset: 0x107E2, size: 0x8, addend: 0x0, symName: __ZNKSt3__117__compressed_pairIPP6BTNodeIiENS_22__allocator_destructorINS_9allocatorIS3_EEEEE5firstB8ue170006Ev, symObjAddr: 0x6E70, symBinAddr: 0x10000A164, symSize: 0x24 }
  - { offsetInCU: 0x10808, offset: 0x10808, size: 0x8, addend: 0x0, symName: __ZNKSt3__122__compressed_pair_elemIPP6BTNodeIiELi0ELb0EE5__getB8ue170006Ev, symObjAddr: 0x6E94, symBinAddr: 0x10000A188, symSize: 0x14 }
  - { offsetInCU: 0x1082E, offset: 0x1082E, size: 0x8, addend: 0x0, symName: __ZNSt3__117__compressed_pairIPP6BTNodeIiENS_22__allocator_destructorINS_9allocatorIS3_EEEEE5firstB8ue170006Ev, symObjAddr: 0x6EA8, symBinAddr: 0x10000A19C, symSize: 0x24 }
  - { offsetInCU: 0x10854, offset: 0x10854, size: 0x8, addend: 0x0, symName: __ZNSt3__122__compressed_pair_elemIPP6BTNodeIiELi0ELb0EE5__getB8ue170006Ev, symObjAddr: 0x6ECC, symBinAddr: 0x10000A1C0, symSize: 0x14 }
  - { offsetInCU: 0x1087A, offset: 0x1087A, size: 0x8, addend: 0x0, symName: __ZNSt3__117__compressed_pairIPPP6BTNodeIiENS_9allocatorIS4_EEE5firstB8ue170006Ev, symObjAddr: 0x6EE0, symBinAddr: 0x10000A1D4, symSize: 0x24 }
  - { offsetInCU: 0x108A0, offset: 0x108A0, size: 0x8, addend: 0x0, symName: __ZNSt3__122__compressed_pair_elemIPPP6BTNodeIiELi0ELb0EE5__getB8ue170006Ev, symObjAddr: 0x6F04, symBinAddr: 0x10000A1F8, symSize: 0x14 }
  - { offsetInCU: 0x108C6, offset: 0x108C6, size: 0x8, addend: 0x0, symName: __ZNSt3__117__compressed_pairIPPP6BTNodeIiERNS_9allocatorIS4_EEE5firstB8ue170006Ev, symObjAddr: 0x6F18, symBinAddr: 0x10000A20C, symSize: 0x24 }
  - { offsetInCU: 0x108EC, offset: 0x108EC, size: 0x8, addend: 0x0, symName: __ZNSt3__110unique_ptrIPP6BTNodeIiENS_22__allocator_destructorINS_9allocatorIS3_EEEEED2B8ue170006Ev, symObjAddr: 0x6F3C, symBinAddr: 0x10000A230, symSize: 0x30 }
  - { offsetInCU: 0x10916, offset: 0x10916, size: 0x8, addend: 0x0, symName: __ZNSt3__110unique_ptrIPP6BTNodeIiENS_22__allocator_destructorINS_9allocatorIS3_EEEEE5resetB8ue170006ES4_, symObjAddr: 0x6F6C, symBinAddr: 0x10000A260, symSize: 0x78 }
  - { offsetInCU: 0x1095A, offset: 0x1095A, size: 0x8, addend: 0x0, symName: __ZNSt3__117__compressed_pairIPP6BTNodeIiENS_22__allocator_destructorINS_9allocatorIS3_EEEEE6secondB8ue170006Ev, symObjAddr: 0x6FE4, symBinAddr: 0x10000A2D8, symSize: 0x28 }
  - { offsetInCU: 0x10980, offset: 0x10980, size: 0x8, addend: 0x0, symName: __ZNSt3__122__allocator_destructorINS_9allocatorIP6BTNodeIiEEEEclB8ue170006EPS4_, symObjAddr: 0x700C, symBinAddr: 0x10000A300, symSize: 0x34 }
  - { offsetInCU: 0x109B4, offset: 0x109B4, size: 0x8, addend: 0x0, symName: __ZNSt3__122__compressed_pair_elemINS_22__allocator_destructorINS_9allocatorIP6BTNodeIiEEEEELi1ELb0EE5__getB8ue170006Ev, symObjAddr: 0x7040, symBinAddr: 0x10000A334, symSize: 0x14 }
  - { offsetInCU: 0x109DA, offset: 0x109DA, size: 0x8, addend: 0x0, symName: __ZNSt3__116allocator_traitsINS_9allocatorIP6BTNodeIiEEEE10deallocateB8ue170006ERS5_PS4_m, symObjAddr: 0x7054, symBinAddr: 0x10000A348, symSize: 0x34 }
  - { offsetInCU: 0x10A1C, offset: 0x10A1C, size: 0x8, addend: 0x0, symName: __ZNSt3__19allocatorIP6BTNodeIiEE10deallocateB8ue170006EPS3_m, symObjAddr: 0x7088, symBinAddr: 0x10000A37C, symSize: 0x70 }
  - { offsetInCU: 0x10A5E, offset: 0x10A5E, size: 0x8, addend: 0x0, symName: __ZNSt3__114__split_bufferIPP6BTNodeIiERNS_9allocatorIS4_EEED2Ev, symObjAddr: 0x70F8, symBinAddr: 0x10000A3EC, symSize: 0x80 }
  - { offsetInCU: 0x10A8A, offset: 0x10A8A, size: 0x8, addend: 0x0, symName: __ZNSt3__114__split_bufferIPP6BTNodeIiERNS_9allocatorIS4_EEE5clearB8ue170006Ev, symObjAddr: 0x7178, symBinAddr: 0x10000A46C, symSize: 0x28 }
  - { offsetInCU: 0x10AB0, offset: 0x10AB0, size: 0x8, addend: 0x0, symName: __ZNKSt3__114__split_bufferIPP6BTNodeIiERNS_9allocatorIS4_EEE8capacityB8ue170006Ev, symObjAddr: 0x71A0, symBinAddr: 0x10000A494, symSize: 0x40 }
  - { offsetInCU: 0x10AD6, offset: 0x10AD6, size: 0x8, addend: 0x0, symName: __ZNSt3__114__split_bufferIPP6BTNodeIiERNS_9allocatorIS4_EEE17__destruct_at_endB8ue170006EPS4_, symObjAddr: 0x71E0, symBinAddr: 0x10000A4D4, symSize: 0x2C }
  - { offsetInCU: 0x10B0A, offset: 0x10B0A, size: 0x8, addend: 0x0, symName: __ZNSt3__114__split_bufferIPP6BTNodeIiERNS_9allocatorIS4_EEE17__destruct_at_endB8ue170006EPS4_NS_17integral_constantIbLb0EEE, symObjAddr: 0x720C, symBinAddr: 0x10000A500, symSize: 0x94 }
  - { offsetInCU: 0x10B4A, offset: 0x10B4A, size: 0x8, addend: 0x0, symName: __ZNKSt3__114__split_bufferIPP6BTNodeIiERNS_9allocatorIS4_EEE9__end_capB8ue170006Ev, symObjAddr: 0x72A0, symBinAddr: 0x10000A594, symSize: 0x28 }
  - { offsetInCU: 0x10B70, offset: 0x10B70, size: 0x8, addend: 0x0, symName: __ZNKSt3__117__compressed_pairIPPP6BTNodeIiERNS_9allocatorIS4_EEE5firstB8ue170006Ev, symObjAddr: 0x72C8, symBinAddr: 0x10000A5BC, symSize: 0x24 }
  - { offsetInCU: 0x10B96, offset: 0x10B96, size: 0x8, addend: 0x0, symName: __ZNSt3__19allocatorIP6BTNodeIiEE9constructB8ue170006IS3_JRKS3_EEEvPT_DpOT0_, symObjAddr: 0x72EC, symBinAddr: 0x10000A5E0, symSize: 0x28 }
  - { offsetInCU: 0x10BEC, offset: 0x10BEC, size: 0x8, addend: 0x0, symName: __ZNKSt3__114__split_bufferIPP6BTNodeIiENS_9allocatorIS4_EEE5emptyB8ue170006Ev, symObjAddr: 0x7314, symBinAddr: 0x10000A608, symSize: 0x28 }
  - { offsetInCU: 0x10C12, offset: 0x10C12, size: 0x8, addend: 0x0, symName: __ZNSt3__116__deque_iteratorIP6BTNodeIiEPS3_RS3_PS4_lLl512EEC1B8ue170006ES6_S4_, symObjAddr: 0x733C, symBinAddr: 0x10000A630, symSize: 0x3C }
  - { offsetInCU: 0x10C5A, offset: 0x10C5A, size: 0x8, addend: 0x0, symName: __ZNSt3__116__deque_iteratorIP6BTNodeIiEPS3_RS3_PS4_lLl512EEC2B8ue170006ES6_S4_, symObjAddr: 0x7378, symBinAddr: 0x10000A66C, symSize: 0x2C }
  - { offsetInCU: 0x10CA2, offset: 0x10CA2, size: 0x8, addend: 0x0, symName: __ZNSt3__117__compressed_pairImNS_9allocatorIP6BTNodeIiEEEE5firstB8ue170006Ev, symObjAddr: 0x73A4, symBinAddr: 0x10000A698, symSize: 0x24 }
  - { offsetInCU: 0x10CC8, offset: 0x10CC8, size: 0x8, addend: 0x0, symName: __ZNSt3__122__compressed_pair_elemImLi0ELb0EE5__getB8ue170006Ev, symObjAddr: 0x73C8, symBinAddr: 0x10000A6BC, symSize: 0x14 }
  - { offsetInCU: 0x10CEE, offset: 0x10CEE, size: 0x8, addend: 0x0, symName: __ZNSt3__15dequeIP6BTNodeIiENS_9allocatorIS3_EEE4backEv, symObjAddr: 0x73DC, symBinAddr: 0x10000A6D0, symSize: 0x68 }
  - { offsetInCU: 0x10D25, offset: 0x10D25, size: 0x8, addend: 0x0, symName: __ZN6BTNodeIiEC2Ei, symObjAddr: 0x7444, symBinAddr: 0x10000A738, symSize: 0x28 }
  - { offsetInCU: 0x10D5D, offset: 0x10D5D, size: 0x8, addend: 0x0, symName: __ZNSt3__15dequeIP6BTNodeIiENS_9allocatorIS3_EEE8pop_backEv, symObjAddr: 0x746C, symBinAddr: 0x10000A760, symSize: 0xE0 }
  - { offsetInCU: 0x10DC1, offset: 0x10DC1, size: 0x8, addend: 0x0, symName: __ZNSt3__116allocator_traitsINS_9allocatorIP6BTNodeIiEEEE7destroyB8ue170006IS4_vEEvRS5_PT_, symObjAddr: 0x754C, symBinAddr: 0x10000A840, symSize: 0x2C }
  - { offsetInCU: 0x10DFE, offset: 0x10DFE, size: 0x8, addend: 0x0, symName: __ZNKSt3__15dequeIP6BTNodeIiENS_9allocatorIS3_EEE22__annotate_shrink_backB8ue170006Emm, symObjAddr: 0x7578, symBinAddr: 0x10000A86C, symSize: 0x60 }
  - { offsetInCU: 0x10E42, offset: 0x10E42, size: 0x8, addend: 0x0, symName: __ZNSt3__15dequeIP6BTNodeIiENS_9allocatorIS3_EEE25__maybe_remove_back_spareB8ue170006Eb, symObjAddr: 0x75D8, symBinAddr: 0x10000A8CC, symSize: 0xE8 }
  - { offsetInCU: 0x10E77, offset: 0x10E77, size: 0x8, addend: 0x0, symName: __ZNSt3__19allocatorIP6BTNodeIiEE7destroyB8ue170006EPS3_, symObjAddr: 0x76C0, symBinAddr: 0x10000A9B4, symSize: 0x14 }
  - { offsetInCU: 0x10EAB, offset: 0x10EAB, size: 0x8, addend: 0x0, symName: __ZNKSt3__15dequeIP6BTNodeIiENS_9allocatorIS3_EEE19__back_spare_blocksB8ue170006Ev, symObjAddr: 0x76D4, symBinAddr: 0x10000A9C8, symSize: 0x2C }
  - { offsetInCU: 0x10ED1, offset: 0x10ED1, size: 0x8, addend: 0x0, symName: __ZNSt3__114__split_bufferIPP6BTNodeIiENS_9allocatorIS4_EEE4backB8ue170006Ev, symObjAddr: 0x7700, symBinAddr: 0x10000A9F4, symSize: 0x1C }
  - { offsetInCU: 0x10EF7, offset: 0x10EF7, size: 0x8, addend: 0x0, symName: __ZNSt3__114__split_bufferIPP6BTNodeIiENS_9allocatorIS4_EEE8pop_backB8ue170006Ev, symObjAddr: 0x771C, symBinAddr: 0x10000AA10, symSize: 0x2C }
  - { offsetInCU: 0x10F1D, offset: 0x10F1D, size: 0x8, addend: 0x0, symName: __ZN6BTNodeIiEC2EPS0_, symObjAddr: 0x7748, symBinAddr: 0x10000AA3C, symSize: 0x28 }
  - { offsetInCU: 0x10F55, offset: 0x10F55, size: 0x8, addend: 0x0, symName: __ZN6BTNodeIiEC2Ec, symObjAddr: 0x7770, symBinAddr: 0x10000AA64, symSize: 0x28 }
  - { offsetInCU: 0x10F8D, offset: 0x10F8D, size: 0x8, addend: 0x0, symName: __ZNSt3__15stackIP6BTNodeIiENS_5dequeIS3_NS_9allocatorIS3_EEEEED2Ev, symObjAddr: 0x7798, symBinAddr: 0x10000AA8C, symSize: 0x2C }
  - { offsetInCU: 0x10FB9, offset: 0x10FB9, size: 0x8, addend: 0x0, symName: __ZNSt3__15dequeIP6BTNodeIiENS_9allocatorIS3_EEED1B8ue170006Ev, symObjAddr: 0x77C4, symBinAddr: 0x10000AAB8, symSize: 0x2C }
  - { offsetInCU: 0x10FE3, offset: 0x10FE3, size: 0x8, addend: 0x0, symName: __ZNSt3__15dequeIP6BTNodeIiENS_9allocatorIS3_EEED2B8ue170006Ev, symObjAddr: 0x77F0, symBinAddr: 0x10000AAE4, symSize: 0xA4 }
  - { offsetInCU: 0x1103A, offset: 0x1103A, size: 0x8, addend: 0x0, symName: __ZNSt3__15dequeIP6BTNodeIiENS_9allocatorIS3_EEE5clearEv, symObjAddr: 0x7894, symBinAddr: 0x10000AB88, symSize: 0x184 }
  - { offsetInCU: 0x1109E, offset: 0x1109E, size: 0x8, addend: 0x0, symName: __ZNKSt3__15dequeIP6BTNodeIiENS_9allocatorIS3_EEE17__annotate_deleteB8ue170006Ev, symObjAddr: 0x7A18, symBinAddr: 0x10000AD0C, symSize: 0xE8 }
  - { offsetInCU: 0x110E2, offset: 0x110E2, size: 0x8, addend: 0x0, symName: __ZNSt3__15dequeIP6BTNodeIiENS_9allocatorIS3_EEE5beginB8ue170006Ev, symObjAddr: 0x7B00, symBinAddr: 0x10000ADF4, symSize: 0xA8 }
  - { offsetInCU: 0x11117, offset: 0x11117, size: 0x8, addend: 0x0, symName: __ZNSt3__116__deque_iteratorIP6BTNodeIiEPS3_RS3_PS4_lLl512EEppB8ue170006Ev, symObjAddr: 0x7BDC, symBinAddr: 0x10000AED0, symSize: 0x70 }
  - { offsetInCU: 0x1113D, offset: 0x1113D, size: 0x8, addend: 0x0, symName: __ZN2BTIiE6prefixEP6BTNodeIiE, symObjAddr: 0x7C7C, symBinAddr: 0x10000AF70, symSize: 0x90 }
  - { offsetInCU: 0x11172, offset: 0x11172, size: 0x8, addend: 0x0, symName: __ZN6BTNodeIiE7getLeftEv, symObjAddr: 0x7D40, symBinAddr: 0x10000B034, symSize: 0x18 }
  - { offsetInCU: 0x11198, offset: 0x11198, size: 0x8, addend: 0x0, symName: __ZN6BTNodeIiE8getRightEv, symObjAddr: 0x7D58, symBinAddr: 0x10000B04C, symSize: 0x18 }
  - { offsetInCU: 0x111BE, offset: 0x111BE, size: 0x8, addend: 0x0, symName: __ZN2BTIiE5infixEP6BTNodeIiE, symObjAddr: 0x7D70, symBinAddr: 0x10000B064, symSize: 0x90 }
  - { offsetInCU: 0x111F3, offset: 0x111F3, size: 0x8, addend: 0x0, symName: __ZN2BTIiE7evalExpEP6BTNodeIiE, symObjAddr: 0x7E00, symBinAddr: 0x10000B0F4, symSize: 0x1A0 }
...
